Certificate:
    Data:
        Version: 3 (0x2)
        Serial Number: 1 (0x1)
    Signature Algorithm: sha1WithRSAEncryption
        Issuer: O=3346a88d8069428daaf61eb362c34dad, CN=ca
        Validity
            Not Before: Dec 30 21:44:11 2014 GMT
            Not After : Dec 29 21:44:11 2024 GMT
        Subject: O=3346a88d8069428daaf61eb362c34dad, CN=6468636627414ef9bd00baed3ac75ff1
        Subject Public Key Info:
            Public Key Algorithm: rsaEncryption
                Public-Key: (4096 bit)
                Modulus:
                    00:d5:61:51:5d:ed:5f:ab:ee:92:a2:50:22:00:c4:
                    20:fe:09:1e:db:fc:a8:ae:b7:28:a1:36:71:1c:a6:
                    14:98:c5:48:a6:e8:60:49:0d:b1:df:ab:76:a8:8a:
                    4b:f0:dc:7a:42:93:ca:38:d5:ad:02:61:fa:e8:ac:
                    7d:69:d0:58:9e:8c:32:9c:1d:bd:a9:1d:81:70:be:
                    18:41:9c:9f:44:60:80:97:73:cd:8d:81:8e:4d:bf:
                    00:ea:a7:1b:f6:db:52:fa:65:3d:e9:48:23:b6:fd:
                    60:af:b9:4c:43:e0:2d:89:50:e0:16:be:64:58:51:
                    1d:c4:3f:7b:69:52:7b:d8:70:8e:ce:bb:14:76:5c:
                    7e:24:05:08:48:7b:36:f8:31:e5:b6:7c:cc:3e:dc:
                    c0:bc:df:58:81:da:57:b1:4a:16:80:0e:48:2c:48:
                    e5:90:78:f3:57:1d:b0:a2:a6:9d:6c:b3:aa:9d:18:
                    dd:2a:ca:d7:bf:cb:0d:36:b2:ad:bc:c7:e8:cd:66:
                    04:2d:31:96:07:dd:8c:d7:2b:70:50:56:83:d1:47:
                    46:45:bf:c5:ed:8a:a8:9c:ee:8c:ad:72:af:4d:40:
                    44:b7:4b:91:d1:21:8b:de:f8:30:05:79:ce:ab:a0:
                    f7:2a:7c:df:eb:3f:fc:6a:7a:f2:dc:43:db:80:23:
                    f7:cc:31:01:9f:56:55:d4:be:db:94:80:06:24:d6:
                    a6:fc:1b:2c:35:08:68:9f:6a:c2:6b:1b:93:28:9e:
                    3f:33:8d:c2:49:fe:44:ef:fe:07:92:99:2c:4b:43:
                    53:48:c4:20:a2:67:29:0a:57:ab:6a:fc:c4:4a:93:
                    9c:97:95:36:16:39:a6:9d:0b:b2:df:9b:36:9c:62:
                    0c:9d:15:d4:1e:89:9a:40:d2:7d:1a:e8:24:ff:c3:
                    a7:1d:00:c3:4c:1f:bb:5b:7f:fc:e0:33:89:05:82:
                    c0:34:54:d0:da:51:e8:41:4a:23:32:58:01:bc:81:
                    62:f8:6f:aa:e0:62:89:7c:d2:27:e5:38:8c:cb:1b:
                    e5:49:18:e4:76:5b:0c:15:fe:04:e4:57:37:92:ad:
                    3d:7a:6a:80:71:87:08:41:eb:4a:bb:b6:72:ea:7c:
                    f1:8a:b8:da:8c:0f:a2:b7:b3:75:cc:9b:a2:75:2a:
                    aa:2d:06:c7:d7:3d:67:0d:9b:47:ac:7a:fd:f5:e9:
                    8c:7b:99:71:d0:40:4e:9e:72:dc:89:2a:4e:e6:6d:
                    69:c4:fa:2e:98:33:44:0b:b2:58:c7:93:50:8a:85:
                    b4:05:b2:7b:f2:c9:44:59:a5:be:45:fd:f2:ea:e5:
                    a7:37:29:70:4b:f0:28:47:31:7f:66:af:44:1f:dc:
                    49:fa:49
                Exponent: 65537 (0x10001)
        X509v3 extensions:
            X509v3 Key Usage: critical
                Digital Signature, Key Encipherment
            X509v3 Basic Constraints: 
                CA:FALSE
            X509v3 Extended Key Usage: 
                TLS Web Client Authentication
            X509v3 Subject Key Identifier: 
                F6:8A:D7:DC:F9:DC:04:F9:87:29:0B:FF:D4:DB:F5:D0:3B:62:E8:26
            X509v3 Authority Key Identifier: 
                keyid:B1:36:C0:06:8F:60:4D:C0:DA:6C:00:01:BB:1E:97:50:4E:0B:50:29

    Signature Algorithm: sha1WithRSAEncryption
         31:49:d6:95:81:8a:ac:f5:10:b2:03:9c:f2:ef:4f:c2:b3:6b:
         96:d9:18:25:61:38:84:84:ed:e4:d4:35:ec:d6:c6:43:5a:5d:
         b0:b4:e2:96:3d:48:78:da:ab:06:7d:22:c9:fe:8c:57:69:47:
         7d:25:36:0f:24:6e:d9:23:ba:25:a8:98:cd:bd:45:dc:d1:07:
         00:db:49:e4:de:01:b2:19:ad:f7:1f:24:cd:80:7d:cb:16:81:
         b5:f1:57:b0:a7:0d:9b:ca:12:6d:e5:c7:89:72:d5:55:ec:6b:
         19:9c:54:76:48:f4:4a:69:4f:54:8c:40:4f:a9:79:53:54:2f:
         42:21:d2:c3:99:72:63:19:50:62:11:8c:fd:81:ba:17:ca:b0:
         cb:51:86:07:78:67:61:bd:a4:68:8d:89:de:2a:3c:a2:d0:c6:
         af:f6:43:b3:18:4e:ad:ed:d2:d2:e6:c5:e6:e4:57:07:d4:75:
         6c:cb:77:5f:d7:87:b6:b3:33:32:3a:1c:08:9d:af:15:c5:3e:
         f2:b6:8c:da:76:78:8b:b7:26:0d:d9:4b:91:d7:36:81:ac:b3:
         c0:bf:e5:f6:96:9d:cb:6f:d4:7a:b3:9e:3b:51:51:be:7d:54:
         65:b6:41:2f:03:73:18:5a:78:e8:d2:f9:42:c0:8b:80:f4:0f:
         99:fa:71:5e:02:2a:04:1e:34:1b:33:9b:01:ab:b2:53:8d:c0:
         3e:80:eb:5a:0c:1c:f4:85:17:e5:4d:6e:2c:ab:b0:a9:4e:8b:
         3a:9b:22:e0:9d:6d:0e:f1:5d:3d:bd:45:fd:77:84:bb:c7:08:
         fc:2b:7e:cc:f1:fc:98:9a:ca:1f:3e:4a:9a:a5:ce:64:30:54:
         0b:3e:55:b2:2f:86:a5:90:f0:0f:0d:0f:a3:01:89:be:f7:21:
         60:3f:9a:a1:22:78:4b:11:53:7e:67:54:6f:96:78:c3:e6:37:
         3a:66:47:74:aa:7f:25:db:35:e5:5f:79:e0:04:73:ee:ed:0e:
         ad:4e:f3:41:5c:77:01:36:79:e1:8a:d7:6b:fc:01:a0:3c:c2:
         6e:69:77:ee:01:c6:46:6f:b8:c1:0c:fd:16:32:63:8a:9e:7b:
         69:8e:90:bd:10:a7:2c:ac:94:22:9f:94:91:cb:f6:32:d2:01:
         eb:97:36:76:d6:47:17:cf:34:be:8e:72:80:7d:3d:fa:57:ea:
         6c:c4:17:74:dc:dd:cc:39:2e:3f:e6:84:6f:1e:bc:6e:66:01:
         c1:27:0d:ed:f3:99:6e:5c:cc:c6:2b:c5:d7:38:98:f1:c0:6a:
         0b:e9:63:b9:91:d9:d2:bc:8f:6f:5a:69:7a:49:0c:e9:c3:bf:
         fc:fa:ab:46:d4:ab:5d:0b
-----BEGIN CERTIFICATE-----
MIIFezCCA2OgAwIBAgIBATANBgkqhkiG9w0BAQUFADA4MSkwJwYDVQQKDCAzMzQ2
YTg4ZDgwNjk0MjhkYWFmNjFlYjM2MmMzNGRhZDELMAkGA1UEAwwCY2EwHhcNMTQx
MjMwMjE0NDExWhcNMjQxMjI5MjE0NDExWjBWMSkwJwYDVQQKDCAzMzQ2YTg4ZDgw
Njk0MjhkYWFmNjFlYjM2MmMzNGRhZDEpMCcGA1UEAwwgNjQ2ODYzNjYyNzQxNGVm
OWJkMDBiYWVkM2FjNzVmZjEwggIiMA0GCSqGSIb3DQEBAQUAA4ICDwAwggIKAoIC
AQDVYVFd7V+r7pKiUCIAxCD+CR7b/KiutyihNnEcphSYxUim6GBJDbHfq3aoikvw
3HpCk8o41a0CYfrorH1p0FiejDKcHb2pHYFwvhhBnJ9EYICXc82NgY5NvwDqpxv2
21L6ZT3pSCO2/WCvuUxD4C2JUOAWvmRYUR3EP3tpUnvYcI7OuxR2XH4kBQhIezb4
MeW2fMw+3MC831iB2lexShaADkgsSOWQePNXHbCipp1ss6qdGN0qyte/yw02sq28
x+jNZgQtMZYH3YzXK3BQVoPRR0ZFv8Xtiqic7oytcq9NQES3S5HRIYve+DAFec6r
oPcqfN/rP/xqevLcQ9uAI/fMMQGfVlXUvtuUgAYk1qb8Gyw1CGifasJrG5Monj8z
jcJJ/kTv/geSmSxLQ1NIxCCiZykKV6tq/MRKk5yXlTYWOaadC7LfmzacYgydFdQe
iZpA0n0a6CT/w6cdAMNMH7tbf/zgM4kFgsA0VNDaUehBSiMyWAG8gWL4b6rgYol8
0iflOIzLG+VJGOR2WwwV/gTkVzeSrT16aoBxhwhB60q7tnLqfPGKuNqMD6K3s3XM
m6J1KqotBsfXPWcNm0esev316Yx7mXHQQE6ectyJKk7mbWnE+i6YM0QLsljHk1CK
hbQFsnvyyURZpb5F/fLq5ac3KXBL8ChHMX9mr0Qf3En6SQIDAQABo3IwcDAOBgNV
HQ8BAf8EBAMCBaAwCQYDVR0TBAIwADATBgNVHSUEDDAKBggrBgEFBQcDAjAdBgNV
HQ4EFgQU9orX3PncBPmHKQv/1Nv10Dti6CYwHwYDVR0jBBgwFoAUsTbABo9gTcDa
bAABux6XUE4LUCkwDQYJKoZIhvcNAQEFBQADggIBADFJ1pWBiqz1ELIDnPLvT8Kz
a5bZGCVhOISE7eTUNezWxkNaXbC04pY9SHjaqwZ9Isn+jFdpR30lNg8kbtkjuiWo
mM29RdzRBwDbSeTeAbIZrfcfJM2AfcsWgbXxV7CnDZvKEm3lx4ly1VXsaxmcVHZI
9EppT1SMQE+peVNUL0Ih0sOZcmMZUGIRjP2BuhfKsMtRhgd4Z2G9pGiNid4qPKLQ
xq/2Q7MYTq3t0tLmxebkVwfUdWzLd1/Xh7azMzI6HAidrxXFPvK2jNp2eIu3Jg3Z
S5HXNoGss8C/5faWnctv1HqznjtRUb59VGW2QS8DcxhaeOjS+ULAi4D0D5n6cV4C
KgQeNBszmwGrslONwD6A61oMHPSFF+VNbiyrsKlOizqbIuCdbQ7xXT29Rf13hLvH
CPwrfszx/Jiayh8+SpqlzmQwVAs+VbIvhqWQ8A8ND6MBib73IWA/mqEieEsRU35n
VG+WeMPmNzpmR3SqfyXbNeVfeeAEc+7tDq1O80FcdwE2eeGK12v8AaA8wm5pd+4B
xkZvuMEM/RYyY4qee2mOkL0QpyyslCKflJHL9jLSAeuXNnbWRxfPNL6OcoB9PfpX
6mzEF3Tc3cw5Lj/mhG8evG5mAcEnDe3zmW5czMYrxdc4mPHAagvpY7mR2dK8j29a
aXpJDOnDv/z6q0bUq10L
-----END CERTIFICATE-----
