Certificate:
    Data:
        Version: 3 (0x2)
        Serial Number: 1 (0x1)
    Signature Algorithm: sha1WithRSAEncryption
        Issuer: O=3346a88d8069428daaf61eb362c34dad, CN=ca
        Validity
            Not Before: Dec 30 21:44:14 2014 GMT
            Not After : Dec 29 21:44:14 2024 GMT
        Subject: O=3346a88d8069428daaf61eb362c34dad, CN=9651284bfc1d4ac49ba1c461f63e3700
        Subject Public Key Info:
            Public Key Algorithm: rsaEncryption
                Public-Key: (4096 bit)
                Modulus:
                    00:bd:14:bc:1b:73:8a:0c:3a:cc:79:56:16:a9:2b:
                    97:8e:12:c5:c2:23:f9:3e:b6:49:ba:6d:e3:ab:3a:
                    9c:5d:a1:e1:e5:c8:54:42:9f:2b:3d:d2:01:99:42:
                    fa:e1:2f:78:79:4e:08:c9:19:1b:c3:96:0b:c7:ea:
                    b1:a1:ed:a2:2c:cc:e4:73:aa:57:59:40:6f:91:ec:
                    06:6b:92:2c:21:8c:db:de:8f:b3:e3:a7:b6:25:22:
                    dd:0d:25:ce:29:69:d4:d1:1b:db:fa:4f:75:c6:52:
                    c6:8f:19:dc:d3:47:34:41:da:b9:4b:c9:db:88:65:
                    a1:5a:ae:cc:ff:4a:cc:71:bb:05:a8:77:b3:da:fa:
                    52:79:34:5c:11:c8:02:70:f3:4d:7e:3e:78:24:e9:
                    4d:22:84:3c:81:71:f1:81:6f:4d:af:3a:cc:72:cd:
                    d0:fc:e9:54:b8:21:95:74:78:8f:be:b7:57:fb:63:
                    3c:49:0a:a0:e4:49:9d:6c:b7:66:39:5b:8e:68:91:
                    37:42:76:b7:39:3c:58:e3:30:ac:0f:a1:85:5a:50:
                    de:e1:68:58:57:14:f6:e8:ab:61:b2:4e:ba:e5:08:
                    95:c5:27:04:54:cd:dd:2e:ba:57:e5:ee:42:df:da:
                    cc:57:7f:95:07:b1:ca:6d:26:d8:12:1c:59:cb:92:
                    8e:ca:f3:12:aa:3e:e7:71:c2:46:82:49:a2:49:02:
                    21:e7:ad:4a:06:3f:33:ea:64:f1:15:56:7b:72:99:
                    9c:31:23:e5:00:65:9a:e7:2a:a2:21:93:94:22:59:
                    12:3d:f4:9c:c7:fe:a1:66:80:5c:b6:90:a5:25:f1:
                    b5:fc:e1:8d:cc:97:e7:f3:6e:34:8e:70:24:c6:04:
                    01:be:07:3b:7b:42:a3:3e:75:ba:22:dc:0b:3c:b2:
                    12:f2:2e:7b:82:dd:93:22:e6:08:8a:3d:b6:7b:c0:
                    e1:35:ec:b2:16:f7:30:55:f2:d9:e2:70:ab:80:41:
                    5c:c6:78:87:95:24:72:c1:33:22:a5:60:3c:ef:d8:
                    f0:5f:fc:5c:67:ca:59:8a:c1:02:05:65:8c:33:f9:
                    bd:5e:e2:db:86:b2:84:cf:34:85:a3:09:96:f7:24:
                    9e:bd:4f:8b:27:b7:0a:e2:85:77:f1:da:63:43:2b:
                    9e:81:08:66:f7:fa:e5:52:38:85:10:9d:f9:f4:af:
                    c3:07:be:a4:e2:df:72:f1:4b:65:92:f9:6f:45:48:
                    ea:d3:b9:5d:67:e8:d0:fc:c8:4c:03:fd:7c:5e:19:
                    38:19:e6:09:3e:c4:84:80:78:3c:8c:ac:50:80:35:
                    7e:b4:5d:86:e3:5b:d1:61:73:eb:7c:79:9f:34:de:
                    41:c7:47
                Exponent: 65537 (0x10001)
        X509v3 extensions:
            X509v3 Key Usage: critical
                Digital Signature, Key Encipherment
            X509v3 Basic Constraints: 
                CA:FALSE
            X509v3 Extended Key Usage: 
                TLS Web Client Authentication
            X509v3 Subject Key Identifier: 
                E7:CE:B7:6B:2E:45:06:31:D6:2B:B2:E7:67:59:43:3B:F8:7F:AE:F1
            X509v3 Authority Key Identifier: 
                keyid:B1:36:C0:06:8F:60:4D:C0:DA:6C:00:01:BB:1E:97:50:4E:0B:50:29

    Signature Algorithm: sha1WithRSAEncryption
         09:46:96:fc:2f:36:e1:07:20:a7:be:1c:3a:b9:0d:d1:b3:04:
         31:b4:65:0e:8c:29:f1:c8:f4:6d:07:87:4b:01:a9:45:5a:b9:
         68:ae:c2:8b:fd:f7:b8:d1:c2:93:80:d5:bd:fc:b0:eb:3e:bb:
         c9:9c:d8:d3:79:e5:ad:ba:60:2a:ce:8b:0d:f4:36:b8:ae:f0:
         4e:55:8e:c8:16:94:a8:28:36:22:3a:81:74:24:64:a4:76:d4:
         03:8e:a5:7e:fc:2e:86:3c:c4:e0:d4:2e:72:ae:05:8d:6b:8b:
         41:e8:c3:87:9b:fd:af:27:f5:b1:bc:a2:fd:9e:2a:95:75:75:
         9c:89:36:e1:5f:76:34:df:be:43:0a:3f:33:db:b4:dd:f2:d9:
         58:f6:e6:1c:66:8d:ba:95:f0:da:b3:d6:a9:4b:fb:d9:30:85:
         22:b4:cb:8d:12:cc:64:f4:a8:39:32:b7:ee:47:2d:96:fa:d5:
         9e:5c:44:a3:84:4a:b8:93:23:26:0b:30:b9:25:50:51:eb:65:
         97:c9:0c:74:db:7f:02:d4:f0:df:60:ab:62:46:40:03:b0:61:
         55:f5:b6:ae:a1:a2:7b:22:47:b7:79:59:aa:1e:b7:9a:bc:0c:
         08:bd:47:79:c7:96:26:c8:18:21:08:8d:61:eb:5c:e5:bf:b6:
         19:a5:18:72:78:79:f1:09:5a:88:67:9b:30:a2:d2:2e:2d:19:
         a0:77:13:cc:9e:2c:45:4e:e9:48:44:05:fb:fe:51:5e:f4:0b:
         00:bb:42:77:f0:e0:9b:67:f8:3f:25:b4:07:28:4e:e4:50:57:
         de:03:d7:29:35:41:6d:1a:a2:ca:6f:f0:c9:a3:fb:c2:93:1f:
         a7:c0:5f:b1:33:53:ea:00:75:a3:3f:0b:de:f8:60:1f:f5:6c:
         7d:a1:2d:88:12:b8:4c:6a:31:ff:fa:6f:6a:9c:f4:d7:76:8d:
         79:39:85:79:b7:7e:b0:ce:0d:f4:11:70:31:bb:ba:3a:93:81:
         ab:7f:1a:c0:4e:ef:6d:30:a8:56:72:1a:89:a5:7d:5f:5e:08:
         3c:42:bb:d0:cf:07:f1:a1:f1:0a:a3:c1:94:36:5e:98:40:8d:
         25:0e:2b:1e:fd:33:4d:60:c5:a3:bc:9f:bc:7a:79:13:51:91:
         55:f9:97:9a:68:12:39:e2:c4:a7:b5:b4:b0:ff:46:58:45:f2:
         e2:93:a6:e5:81:0f:3e:c2:3b:d6:36:2f:a5:eb:6c:01:67:96:
         5a:f4:2a:fe:43:f6:03:e7:3d:45:fe:96:2b:6a:52:8d:77:46:
         0a:1a:68:74:30:8f:8c:8b:8d:03:a6:fd:ad:5b:13:c1:da:fe:
         91:4c:79:7f:28:20:d1:30
-----BEGIN CERTIFICATE-----
MIIFezCCA2OgAwIBAgIBATANBgkqhkiG9w0BAQUFADA4MSkwJwYDVQQKDCAzMzQ2
YTg4ZDgwNjk0MjhkYWFmNjFlYjM2MmMzNGRhZDELMAkGA1UEAwwCY2EwHhcNMTQx
MjMwMjE0NDE0WhcNMjQxMjI5MjE0NDE0WjBWMSkwJwYDVQQKDCAzMzQ2YTg4ZDgw
Njk0MjhkYWFmNjFlYjM2MmMzNGRhZDEpMCcGA1UEAwwgOTY1MTI4NGJmYzFkNGFj
NDliYTFjNDYxZjYzZTM3MDAwggIiMA0GCSqGSIb3DQEBAQUAA4ICDwAwggIKAoIC
AQC9FLwbc4oMOsx5VhapK5eOEsXCI/k+tkm6beOrOpxdoeHlyFRCnys90gGZQvrh
L3h5TgjJGRvDlgvH6rGh7aIszORzqldZQG+R7AZrkiwhjNvej7Pjp7YlIt0NJc4p
adTRG9v6T3XGUsaPGdzTRzRB2rlLyduIZaFarsz/SsxxuwWod7Pa+lJ5NFwRyAJw
801+Pngk6U0ihDyBcfGBb02vOsxyzdD86VS4IZV0eI++t1f7YzxJCqDkSZ1st2Y5
W45okTdCdrc5PFjjMKwPoYVaUN7haFhXFPboq2GyTrrlCJXFJwRUzd0uulfl7kLf
2sxXf5UHscptJtgSHFnLko7K8xKqPudxwkaCSaJJAiHnrUoGPzPqZPEVVntymZwx
I+UAZZrnKqIhk5QiWRI99JzH/qFmgFy2kKUl8bX84Y3Ml+fzbjSOcCTGBAG+Bzt7
QqM+dboi3As8shLyLnuC3ZMi5giKPbZ7wOE17LIW9zBV8tnicKuAQVzGeIeVJHLB
MyKlYDzv2PBf/FxnylmKwQIFZYwz+b1e4tuGsoTPNIWjCZb3JJ69T4sntwrihXfx
2mNDK56BCGb3+uVSOIUQnfn0r8MHvqTi33LxS2WS+W9FSOrTuV1n6ND8yEwD/Xxe
GTgZ5gk+xISAeDyMrFCANX60XYbjW9Fhc+t8eZ803kHHRwIDAQABo3IwcDAOBgNV
HQ8BAf8EBAMCBaAwCQYDVR0TBAIwADATBgNVHSUEDDAKBggrBgEFBQcDAjAdBgNV
HQ4EFgQU5863ay5FBjHWK7LnZ1lDO/h/rvEwHwYDVR0jBBgwFoAUsTbABo9gTcDa
bAABux6XUE4LUCkwDQYJKoZIhvcNAQEFBQADggIBAAlGlvwvNuEHIKe+HDq5DdGz
BDG0ZQ6MKfHI9G0Hh0sBqUVauWiuwov997jRwpOA1b38sOs+u8mc2NN55a26YCrO
iw30Nriu8E5VjsgWlKgoNiI6gXQkZKR21AOOpX78LoY8xODULnKuBY1ri0How4eb
/a8n9bG8ov2eKpV1dZyJNuFfdjTfvkMKPzPbtN3y2Vj25hxmjbqV8Nqz1qlL+9kw
hSK0y40SzGT0qDkyt+5HLZb61Z5cRKOESriTIyYLMLklUFHrZZfJDHTbfwLU8N9g
q2JGQAOwYVX1tq6honsiR7d5Waoet5q8DAi9R3nHlibIGCEIjWHrXOW/thmlGHJ4
efEJWohnmzCi0i4tGaB3E8yeLEVO6UhEBfv+UV70CwC7Qnfw4Jtn+D8ltAcoTuRQ
V94D1yk1QW0aospv8Mmj+8KTH6fAX7EzU+oAdaM/C974YB/1bH2hLYgSuExqMf/6
b2qc9Nd2jXk5hXm3frDODfQRcDG7ujqTgat/GsBO720wqFZyGomlfV9eCDxCu9DP
B/Gh8QqjwZQ2XphAjSUOKx79M01gxaO8n7x6eRNRkVX5l5poEjnixKe1tLD/RlhF
8uKTpuWBDz7CO9Y2L6XrbAFnllr0Kv5D9gPnPUX+litqUo13RgoaaHQwj4yLjQOm
/a1bE8Ha/pFMeX8oINEw
-----END CERTIFICATE-----
