Certificate:
    Data:
        Version: 3 (0x2)
        Serial Number: 1 (0x1)
    Signature Algorithm: sha1WithRSAEncryption
        Issuer: O=3346a88d8069428daaf61eb362c34dad, CN=ca
        Validity
            Not Before: Dec 30 21:44:11 2014 GMT
            Not After : Dec 29 21:44:11 2024 GMT
        Subject: O=3346a88d8069428daaf61eb362c34dad, CN=a35537cf7dcf4482a60fba5b9cc3a110
        Subject Public Key Info:
            Public Key Algorithm: rsaEncryption
                Public-Key: (4096 bit)
                Modulus:
                    00:f9:89:35:62:fc:25:55:0f:3e:4e:35:e2:76:9c:
                    25:88:9f:77:97:9e:73:c7:14:46:71:46:6f:97:96:
                    c3:52:e7:75:54:e3:bc:c7:94:06:5d:99:46:88:e0:
                    32:70:72:74:eb:4a:0a:c8:82:da:02:ae:a5:96:fc:
                    c5:e8:a1:ea:f3:7d:40:92:ae:ea:f9:61:3b:ec:ae:
                    a4:de:93:1c:75:48:03:2e:9f:bb:a1:b0:7b:dc:bb:
                    4c:bc:82:55:25:16:46:52:50:44:ab:d5:c7:34:9c:
                    76:42:49:54:68:2c:b1:00:9e:88:f5:62:a4:0f:e8:
                    5d:7a:48:98:e9:b8:00:8c:9a:49:12:f1:38:00:42:
                    71:3e:ae:8c:e1:34:6a:05:6f:d7:64:3e:58:13:07:
                    10:fc:d7:cc:c5:24:5e:57:8d:09:de:e4:f2:09:e1:
                    5f:01:93:c9:8b:20:6f:14:6b:c9:02:72:f3:f0:6e:
                    f8:94:17:32:8c:3b:7e:59:4c:f3:c6:6d:10:44:12:
                    01:fb:70:a1:5f:1d:d9:d2:ed:dc:ba:64:69:5e:75:
                    96:e1:42:10:87:af:2c:a5:45:86:5b:f5:98:8b:8b:
                    d5:c5:33:f4:34:87:af:37:41:c4:62:b9:d7:41:68:
                    22:f1:e5:d1:8b:8c:ca:7d:92:32:36:3a:cb:3e:41:
                    4c:8c:7d:6f:ca:9c:89:ac:73:3d:38:9d:7c:21:21:
                    82:35:1b:4e:6a:ad:66:c2:2e:e9:ab:ce:b0:81:94:
                    80:49:4d:4d:f8:32:a4:a8:f4:a4:40:b3:ef:47:9e:
                    62:d9:11:aa:e8:ef:c5:4c:35:29:14:2d:18:04:cd:
                    3e:5b:bb:3a:ff:98:cd:c2:04:b7:74:96:5e:6c:4f:
                    87:05:fa:bc:a8:ef:fb:66:87:e2:68:05:1a:0e:2c:
                    c4:a7:26:95:b0:98:ff:3c:df:1a:1f:a8:c3:69:d5:
                    24:64:8e:32:32:11:d2:fa:d9:50:89:a1:b6:72:d8:
                    c5:33:77:e9:e8:10:60:d0:b5:b7:0f:b7:2e:64:18:
                    31:68:6c:17:8d:62:36:cd:4c:be:5e:7c:e0:6a:ef:
                    58:81:57:da:95:65:4e:de:9e:34:c4:52:8e:f4:b1:
                    d6:7a:a5:41:37:55:89:36:44:03:18:ff:09:2b:92:
                    1e:c4:26:db:9c:b0:9d:4d:5b:1a:53:a6:bc:1e:8b:
                    e1:45:db:e4:b5:18:44:9d:c7:a6:c2:4a:ad:1a:c1:
                    89:2a:fd:c3:69:43:72:35:6f:bd:43:b9:1e:37:70:
                    8e:2a:17:46:97:27:f1:29:1e:9b:15:6c:fa:d8:f6:
                    d8:21:1f:59:62:5f:f8:88:22:7a:69:0a:d4:34:bd:
                    35:29:73
                Exponent: 65537 (0x10001)
        X509v3 extensions:
            X509v3 Key Usage: critical
                Digital Signature, Key Encipherment
            X509v3 Basic Constraints: 
                CA:FALSE
            X509v3 Extended Key Usage: 
                TLS Web Server Authentication, TLS Web Client Authentication
            X509v3 Subject Key Identifier: 
                6C:F2:2A:9E:D5:00:66:63:2F:16:8C:CF:F9:F6:81:10:B7:42:F9:5B
            X509v3 Authority Key Identifier: 
                keyid:B1:36:C0:06:8F:60:4D:C0:DA:6C:00:01:BB:1E:97:50:4E:0B:50:29

    Signature Algorithm: sha1WithRSAEncryption
         51:5d:01:b7:a2:91:c5:3d:fe:9d:7c:17:3a:c8:a8:82:08:92:
         ec:d0:cd:66:22:88:62:c2:1b:4a:07:f5:6d:1c:6c:4b:50:c6:
         e3:4c:90:64:0f:57:21:29:bb:89:44:c7:55:8b:a0:26:24:e7:
         0c:ac:8f:86:aa:9b:61:b0:dc:8a:cc:82:a3:9a:4c:84:59:c4:
         ed:2b:13:0b:9c:7f:cc:73:94:05:c5:b6:e4:05:ea:df:26:e4:
         5d:f6:48:fd:d6:cd:93:fb:a8:66:77:9b:f2:cd:e2:6d:25:1a:
         03:cd:5e:bc:91:d2:20:5e:1e:8f:1e:7b:d1:31:b4:10:b3:34:
         bd:bc:6f:ba:0d:f1:65:55:00:9a:bf:e2:8b:bd:68:38:79:a1:
         cb:6c:09:04:f4:fd:e9:ec:96:f0:04:33:9f:fc:e8:e5:a7:d6:
         79:81:48:e2:6f:38:e9:ae:10:22:9a:10:58:d8:e1:75:8a:13:
         c1:1f:52:d3:20:b6:6a:ef:34:28:ea:71:fd:60:c6:9c:6c:53:
         87:5b:04:a2:3c:97:91:6e:fc:e1:5a:aa:45:eb:0f:cc:3a:f5:
         28:bf:01:97:7b:b3:26:e4:b7:ad:9c:34:86:cb:04:ad:2e:70:
         7c:91:5c:e5:3e:03:0b:18:85:d7:03:62:26:ad:c4:31:24:32:
         38:44:00:fb:85:b9:6d:c9:5b:e4:3e:b7:35:b0:e9:82:a2:77:
         d3:51:34:82:a2:c4:3a:96:ab:0f:83:65:07:d3:cd:f4:4a:14:
         39:09:fd:68:d4:ac:19:83:7b:22:53:87:11:3e:04:f0:95:99:
         7f:d7:8d:1c:69:64:8c:69:64:40:a4:50:79:3a:78:c2:79:bf:
         fe:ec:db:ec:a2:85:b5:c7:c5:98:43:2b:bd:6f:47:79:42:54:
         00:d8:00:76:8e:b0:28:d1:b5:95:c7:87:21:39:94:9f:93:5b:
         7f:89:ad:f9:96:18:ec:02:e0:d9:92:f8:a1:b5:48:37:90:5b:
         d4:a5:6d:9a:5d:9f:b2:d4:50:74:d3:b7:50:45:29:26:83:33:
         3f:43:e2:c0:f4:9d:1b:66:ae:08:c6:4d:28:ad:f8:c4:6b:6e:
         ef:68:f4:ff:86:89:d6:fe:41:ed:b7:a7:42:6c:cb:51:a0:4f:
         22:75:b1:2d:e1:4a:9f:6a:a1:44:ac:df:f4:c1:84:18:eb:39:
         01:36:48:b1:ac:3d:4b:e4:bd:06:e8:7f:69:6a:1a:85:5b:f4:
         81:9f:5d:bb:a6:b9:be:3f:18:b1:e5:a5:c5:cb:83:90:81:c3:
         df:99:0f:16:8c:ba:62:a4:2e:e2:08:1c:2e:38:fe:3c:87:62:
         26:8b:b1:73:f3:72:9c:7d
-----BEGIN CERTIFICATE-----
MIIFhTCCA22gAwIBAgIBATANBgkqhkiG9w0BAQUFADA4MSkwJwYDVQQKDCAzMzQ2
YTg4ZDgwNjk0MjhkYWFmNjFlYjM2MmMzNGRhZDELMAkGA1UEAwwCY2EwHhcNMTQx
MjMwMjE0NDExWhcNMjQxMjI5MjE0NDExWjBWMSkwJwYDVQQKDCAzMzQ2YTg4ZDgw
Njk0MjhkYWFmNjFlYjM2MmMzNGRhZDEpMCcGA1UEAwwgYTM1NTM3Y2Y3ZGNmNDQ4
MmE2MGZiYTViOWNjM2ExMTAwggIiMA0GCSqGSIb3DQEBAQUAA4ICDwAwggIKAoIC
AQD5iTVi/CVVDz5ONeJ2nCWIn3eXnnPHFEZxRm+XlsNS53VU47zHlAZdmUaI4DJw
cnTrSgrIgtoCrqWW/MXooerzfUCSrur5YTvsrqTekxx1SAMun7uhsHvcu0y8glUl
FkZSUESr1cc0nHZCSVRoLLEAnoj1YqQP6F16SJjpuACMmkkS8TgAQnE+rozhNGoF
b9dkPlgTBxD818zFJF5XjQne5PIJ4V8Bk8mLIG8Ua8kCcvPwbviUFzKMO35ZTPPG
bRBEEgH7cKFfHdnS7dy6ZGledZbhQhCHryylRYZb9ZiLi9XFM/Q0h683QcRiuddB
aCLx5dGLjMp9kjI2Oss+QUyMfW/KnImscz04nXwhIYI1G05qrWbCLumrzrCBlIBJ
TU34MqSo9KRAs+9HnmLZEaro78VMNSkULRgEzT5buzr/mM3CBLd0ll5sT4cF+ryo
7/tmh+JoBRoOLMSnJpWwmP883xofqMNp1SRkjjIyEdL62VCJobZy2MUzd+noEGDQ
tbcPty5kGDFobBeNYjbNTL5efOBq71iBV9qVZU7enjTEUo70sdZ6pUE3VYk2RAMY
/wkrkh7EJtucsJ1NWxpTprwei+FF2+S1GESdx6bCSq0awYkq/cNpQ3I1b71DuR43
cI4qF0aXJ/EpHpsVbPrY9tghH1liX/iIInppCtQ0vTUpcwIDAQABo3wwejAOBgNV
HQ8BAf8EBAMCBaAwCQYDVR0TBAIwADAdBgNVHSUEFjAUBggrBgEFBQcDAQYIKwYB
BQUHAwIwHQYDVR0OBBYEFGzyKp7VAGZjLxaMz/n2gRC3QvlbMB8GA1UdIwQYMBaA
FLE2wAaPYE3A2mwAAbsel1BOC1ApMA0GCSqGSIb3DQEBBQUAA4ICAQBRXQG3opHF
Pf6dfBc6yKiCCJLs0M1mIohiwhtKB/VtHGxLUMbjTJBkD1chKbuJRMdVi6AmJOcM
rI+GqpthsNyKzIKjmkyEWcTtKxMLnH/Mc5QFxbbkBerfJuRd9kj91s2T+6hmd5vy
zeJtJRoDzV68kdIgXh6PHnvRMbQQszS9vG+6DfFlVQCav+KLvWg4eaHLbAkE9P3p
7JbwBDOf/Ojlp9Z5gUjibzjprhAimhBY2OF1ihPBH1LTILZq7zQo6nH9YMacbFOH
WwSiPJeRbvzhWqpF6w/MOvUovwGXe7Mm5LetnDSGywStLnB8kVzlPgMLGIXXA2Im
rcQxJDI4RAD7hbltyVvkPrc1sOmConfTUTSCosQ6lqsPg2UH0830ShQ5Cf1o1KwZ
g3siU4cRPgTwlZl/140caWSMaWRApFB5OnjCeb/+7NvsooW1x8WYQyu9b0d5QlQA
2AB2jrAo0bWVx4chOZSfk1t/ia35lhjsAuDZkvihtUg3kFvUpW2aXZ+y1FB007dQ
RSkmgzM/Q+LA9J0bZq4Ixk0orfjEa27vaPT/honW/kHtt6dCbMtRoE8idbEt4Uqf
aqFErN/0wYQY6zkBNkixrD1L5L0G6H9pahqFW/SBn127prm+Pxix5aXFy4OQgcPf
mQ8WjLpipC7iCBwuOP48h2Imi7Fz83KcfQ==
-----END CERTIFICATE-----
