Certificate:
    Data:
        Version: 3 (0x2)
        Serial Number: 1 (0x1)
    Signature Algorithm: sha1WithRSAEncryption
        Issuer: O=3346a88d8069428daaf61eb362c34dad, CN=ca
        Validity
            Not Before: Dec 30 21:44:13 2014 GMT
            Not After : Dec 29 21:44:13 2024 GMT
        Subject: O=3346a88d8069428daaf61eb362c34dad, CN=c0d6de1859dc4f859b2be3ab78f256c1
        Subject Public Key Info:
            Public Key Algorithm: rsaEncryption
                Public-Key: (4096 bit)
                Modulus:
                    00:bf:18:53:06:02:1f:7c:56:77:0d:74:b0:1c:8a:
                    4c:a5:51:28:e5:e4:4d:64:9d:e9:e5:b6:37:a3:91:
                    0d:ac:53:49:9e:aa:17:f6:b1:14:33:7f:bd:d9:a5:
                    f9:9e:02:cb:48:fe:6b:ef:35:b0:44:af:c1:e7:95:
                    c6:d1:c8:04:09:10:9e:d9:dd:6c:ec:43:b7:ba:8a:
                    e5:98:7c:f8:d6:16:b6:a7:5b:f3:88:be:99:5b:b2:
                    4f:80:26:75:90:d8:d0:54:88:9f:b6:1e:0a:65:d7:
                    ee:82:57:dc:b0:c9:81:ee:7c:28:9b:09:fc:04:34:
                    8c:b3:68:af:c0:7c:97:34:ce:16:95:e8:25:96:3d:
                    21:37:43:45:e8:36:aa:bd:a8:fa:2d:16:18:be:4f:
                    7d:48:97:b0:9b:e2:b9:f2:ce:61:af:88:2b:77:db:
                    e8:e9:b9:57:f0:f7:10:84:6e:01:ff:fd:75:b5:ee:
                    ff:e8:d8:00:16:b8:bc:90:59:9f:24:ba:26:9c:5f:
                    71:59:7f:e1:33:3b:6d:99:47:a5:d5:51:70:21:9d:
                    19:9c:75:d6:1e:bc:71:34:81:2a:19:1f:43:2d:4c:
                    22:6d:5e:9c:a9:26:27:00:6b:35:7e:c5:71:d6:3b:
                    67:e1:1e:cf:fd:31:ee:aa:35:f8:89:48:2b:95:92:
                    dd:9b:e8:1d:64:73:d6:81:9a:45:3b:35:63:b6:f9:
                    2c:f8:cf:58:71:3e:67:9c:bb:ae:16:1f:55:24:da:
                    a2:19:38:76:c4:03:13:24:0c:da:75:f0:fd:e3:7a:
                    81:cb:46:f3:9f:0d:6d:aa:41:38:a0:1f:6b:d5:cd:
                    7a:3b:2b:b8:f3:31:bd:fe:f7:50:54:9a:18:0b:dd:
                    5b:97:da:b8:07:ee:d0:65:80:f6:48:8e:d6:91:5c:
                    c0:65:03:65:9c:31:4a:e6:c5:48:04:06:e2:7f:4e:
                    5a:af:aa:a7:e5:a6:09:dc:1e:e7:13:c1:92:74:bc:
                    25:64:6e:53:14:5c:f2:a0:26:a0:86:28:41:07:b8:
                    22:9f:72:e0:76:22:ff:ad:dd:22:44:42:6a:3c:86:
                    ec:e1:e7:fc:7f:ce:f8:a9:0e:e0:dd:af:13:59:c9:
                    89:6e:65:b5:a9:a5:2e:af:cb:88:dc:e4:f4:29:ab:
                    fb:33:39:8a:e9:21:b7:35:46:2b:cd:ba:3f:38:b0:
                    65:f1:4a:90:f3:d9:69:c6:2f:39:36:08:e8:1c:a9:
                    73:35:48:04:87:ef:f5:01:bd:b0:09:98:de:ee:a0:
                    73:75:f4:4c:cb:f0:0b:33:97:d5:38:2d:12:89:be:
                    e2:4b:9f:b2:79:08:cf:16:24:4a:ba:9f:b8:a3:d9:
                    77:71:c3
                Exponent: 65537 (0x10001)
        X509v3 extensions:
            X509v3 Key Usage: critical
                Digital Signature, Key Encipherment
            X509v3 Basic Constraints: 
                CA:FALSE
            X509v3 Extended Key Usage: 
                TLS Web Client Authentication
            X509v3 Subject Key Identifier: 
                0A:61:EC:53:8A:FA:8A:07:70:20:21:92:E8:1A:B7:AF:6B:25:9F:3B
            X509v3 Authority Key Identifier: 
                keyid:B1:36:C0:06:8F:60:4D:C0:DA:6C:00:01:BB:1E:97:50:4E:0B:50:29

    Signature Algorithm: sha1WithRSAEncryption
         e3:b4:63:6c:c8:17:a0:87:fe:d1:c6:1f:fe:da:03:5a:b6:2a:
         98:d3:84:15:70:a4:95:c0:6c:8c:17:c3:51:67:e2:8b:ed:fb:
         e7:d3:cd:15:fc:dd:24:bf:f1:05:dd:ae:4e:e7:8d:c4:c1:a2:
         9a:33:ba:12:44:f2:2d:9f:8b:6b:79:49:35:35:e9:89:c9:a6:
         16:b6:62:a6:ac:2f:ed:c6:8f:41:23:16:ac:80:b5:55:34:05:
         da:22:6f:ce:a1:a2:54:42:76:85:36:71:24:6b:81:83:12:9f:
         28:51:2e:2a:98:3f:59:49:4e:87:83:f4:3d:2e:f7:6c:f5:1c:
         49:79:90:03:d3:57:bb:ff:1b:6f:4c:67:62:16:4a:ba:8b:96:
         2f:4e:53:09:53:51:5e:c6:b5:a5:18:0b:1a:9f:b4:b7:0f:b3:
         5d:01:5b:a4:8c:78:ce:43:87:2d:28:fb:71:0e:de:f6:9a:56:
         13:a4:c4:6c:09:07:f9:50:26:85:e2:1c:d4:ab:78:1b:6a:0a:
         92:16:38:d9:23:a9:3b:19:bb:65:40:14:e9:6f:df:0c:42:3a:
         35:19:94:eb:cf:8e:3a:d3:65:56:0d:16:fd:97:5c:27:33:76:
         20:3e:97:a1:dd:78:e7:af:a1:d2:b0:8a:94:9a:0a:38:aa:9f:
         51:fb:ba:eb:cb:4d:a1:c5:b8:d5:2a:82:3e:57:47:e3:d9:43:
         72:b6:ba:e0:83:ba:75:e7:b3:d2:d5:77:ce:30:f8:9d:db:ae:
         36:30:f0:63:90:af:cc:1a:3f:36:5a:ed:e7:68:42:bd:74:f0:
         cb:82:63:9b:63:45:97:ee:0b:db:50:51:d4:d4:76:b3:70:0e:
         a6:eb:20:47:84:15:99:d9:02:3b:23:72:55:d6:d1:85:11:e3:
         48:50:12:90:7d:9b:58:36:57:94:e9:5c:2e:19:62:1e:18:1e:
         81:8b:72:20:8e:ec:73:da:c3:ab:1c:e4:8f:57:5f:30:a5:4c:
         6c:b5:7a:49:1f:2e:e0:12:44:bb:58:62:75:3f:53:2c:b7:d9:
         4c:06:c7:f1:68:37:09:49:b7:e2:cc:53:32:2c:5e:c4:85:cf:
         c7:ce:22:d7:26:c9:6c:63:c7:24:e6:74:6a:c9:6d:b4:f9:dd:
         6e:bd:da:de:46:fe:6f:3c:43:66:4b:a3:1c:50:ac:97:33:ec:
         2f:46:ce:39:c5:d6:cd:1d:b7:ee:4b:14:84:22:df:c3:35:b9:
         93:c9:05:2e:11:ce:a3:35:0c:ac:ad:10:d1:44:95:81:d8:28:
         1f:89:7f:5d:93:c2:7d:a8:e2:05:0c:ee:f1:7e:c1:23:da:b8:
         f2:c7:e8:9c:2a:37:fb:1f
-----BEGIN CERTIFICATE-----
MIIFezCCA2OgAwIBAgIBATANBgkqhkiG9w0BAQUFADA4MSkwJwYDVQQKDCAzMzQ2
YTg4ZDgwNjk0MjhkYWFmNjFlYjM2MmMzNGRhZDELMAkGA1UEAwwCY2EwHhcNMTQx
MjMwMjE0NDEzWhcNMjQxMjI5MjE0NDEzWjBWMSkwJwYDVQQKDCAzMzQ2YTg4ZDgw
Njk0MjhkYWFmNjFlYjM2MmMzNGRhZDEpMCcGA1UEAwwgYzBkNmRlMTg1OWRjNGY4
NTliMmJlM2FiNzhmMjU2YzEwggIiMA0GCSqGSIb3DQEBAQUAA4ICDwAwggIKAoIC
AQC/GFMGAh98VncNdLAcikylUSjl5E1knenltjejkQ2sU0meqhf2sRQzf73Zpfme
AstI/mvvNbBEr8HnlcbRyAQJEJ7Z3WzsQ7e6iuWYfPjWFranW/OIvplbsk+AJnWQ
2NBUiJ+2Hgpl1+6CV9ywyYHufCibCfwENIyzaK/AfJc0zhaV6CWWPSE3Q0XoNqq9
qPotFhi+T31Il7Cb4rnyzmGviCt32+jpuVfw9xCEbgH//XW17v/o2AAWuLyQWZ8k
uiacX3FZf+EzO22ZR6XVUXAhnRmcddYevHE0gSoZH0MtTCJtXpypJicAazV+xXHW
O2fhHs/9Me6qNfiJSCuVkt2b6B1kc9aBmkU7NWO2+Sz4z1hxPmecu64WH1Uk2qIZ
OHbEAxMkDNp18P3jeoHLRvOfDW2qQTigH2vVzXo7K7jzMb3+91BUmhgL3VuX2rgH
7tBlgPZIjtaRXMBlA2WcMUrmxUgEBuJ/TlqvqqflpgncHucTwZJ0vCVkblMUXPKg
JqCGKEEHuCKfcuB2Iv+t3SJEQmo8huzh5/x/zvipDuDdrxNZyYluZbWppS6vy4jc
5PQpq/szOYrpIbc1RivNuj84sGXxSpDz2WnGLzk2COgcqXM1SASH7/UBvbAJmN7u
oHN19EzL8Aszl9U4LRKJvuJLn7J5CM8WJEq6n7ij2XdxwwIDAQABo3IwcDAOBgNV
HQ8BAf8EBAMCBaAwCQYDVR0TBAIwADATBgNVHSUEDDAKBggrBgEFBQcDAjAdBgNV
HQ4EFgQUCmHsU4r6igdwICGS6Bq3r2slnzswHwYDVR0jBBgwFoAUsTbABo9gTcDa
bAABux6XUE4LUCkwDQYJKoZIhvcNAQEFBQADggIBAOO0Y2zIF6CH/tHGH/7aA1q2
KpjThBVwpJXAbIwXw1Fn4ovt++fTzRX83SS/8QXdrk7njcTBopozuhJE8i2fi2t5
STU16YnJpha2YqasL+3Gj0EjFqyAtVU0Bdoib86holRCdoU2cSRrgYMSnyhRLiqY
P1lJToeD9D0u92z1HEl5kAPTV7v/G29MZ2IWSrqLli9OUwlTUV7GtaUYCxqftLcP
s10BW6SMeM5Dhy0o+3EO3vaaVhOkxGwJB/lQJoXiHNSreBtqCpIWONkjqTsZu2VA
FOlv3wxCOjUZlOvPjjrTZVYNFv2XXCczdiA+l6HdeOevodKwipSaCjiqn1H7uuvL
TaHFuNUqgj5XR+PZQ3K2uuCDunXns9LVd84w+J3brjYw8GOQr8waPzZa7edoQr10
8MuCY5tjRZfuC9tQUdTUdrNwDqbrIEeEFZnZAjsjclXW0YUR40hQEpB9m1g2V5Tp
XC4ZYh4YHoGLciCO7HPaw6sc5I9XXzClTGy1ekkfLuASRLtYYnU/Uyy32UwGx/Fo
NwlJt+LMUzIsXsSFz8fOItcmyWxjxyTmdGrJbbT53W692t5G/m88Q2ZLoxxQrJcz
7C9GzjnF1s0dt+5LFIQi38M1uZPJBS4RzqM1DKytENFElYHYKB+Jf12Twn2o4gUM
7vF+wSPauPLH6JwqN/sf
-----END CERTIFICATE-----
