Certificate:
    Data:
        Version: 3 (0x2)
        Serial Number: 1 (0x1)
    Signature Algorithm: sha1WithRSAEncryption
        Issuer: O=3346a88d8069428daaf61eb362c34dad, CN=ca
        Validity
            Not Before: Dec 30 21:44:05 2014 GMT
            Not After : Dec 29 21:44:05 2024 GMT
        Subject: O=3346a88d8069428daaf61eb362c34dad, CN=ca
        Subject Public Key Info:
            Public Key Algorithm: rsaEncryption
                Public-Key: (4096 bit)
                Modulus:
                    00:e9:07:06:08:89:f1:34:ea:0b:ad:b7:12:dd:a5:
                    a6:81:b6:2f:ca:d4:a7:89:45:dc:3d:60:37:78:99:
                    b3:89:0a:d3:23:e0:1c:68:55:80:56:ad:f5:74:5a:
                    77:a3:bf:03:36:d1:e2:04:99:41:a8:a8:79:01:95:
                    c7:65:ef:50:89:89:ee:04:5c:2c:24:7b:13:41:f2:
                    83:fb:df:3e:7c:23:a3:b9:f5:f5:19:ef:d7:f6:89:
                    ac:da:df:91:a7:4a:59:d3:f5:c2:49:fb:55:d7:b4:
                    62:3e:df:d6:fe:aa:e8:8c:80:f2:6d:46:69:e3:6d:
                    bd:e5:69:b1:d6:a5:46:bc:60:f9:af:b0:b7:7f:7a:
                    34:a2:da:53:02:0f:78:a1:08:80:6b:88:35:eb:b4:
                    01:fb:9e:fb:d6:a5:cb:3c:58:bc:69:1b:28:f9:c5:
                    09:2b:aa:0c:28:70:f2:00:05:21:97:e1:7c:9f:08:
                    c2:86:85:68:01:7b:55:2c:e3:47:ad:b7:82:ab:4e:
                    1e:94:fc:3f:87:a5:91:69:f6:1c:d7:93:41:90:f7:
                    33:0b:ee:f6:3d:e7:80:5f:39:84:67:43:2e:1b:43:
                    c9:92:02:bd:3a:d8:95:cb:a5:6b:be:ea:26:5c:24:
                    21:54:09:e9:15:b9:8f:3f:21:1a:6a:e8:da:ef:6a:
                    d3:26:e8:22:49:76:39:32:19:21:c7:fe:96:4c:d6:
                    75:05:94:71:88:bf:a9:de:63:ba:c1:c6:7f:c0:88:
                    42:26:95:f7:42:33:2c:9e:96:c4:d8:e4:21:0d:f7:
                    fd:dd:a7:63:64:e6:f7:bb:dd:f8:be:52:de:75:cb:
                    7b:2e:5f:c1:c4:aa:17:61:87:16:c2:c8:f4:df:72:
                    f2:7b:5d:2a:fc:60:90:d8:b6:10:ea:55:80:f9:36:
                    35:f3:55:11:a1:a2:8a:fc:e0:71:54:8b:d8:56:0b:
                    db:f9:70:55:7a:2e:32:a6:1a:70:1a:db:48:78:29:
                    26:23:c6:a9:a0:47:c9:b7:fe:14:ab:46:17:78:50:
                    36:70:fd:58:af:8b:02:6c:53:22:3c:94:19:8b:d7:
                    97:70:bd:89:8f:23:1a:54:eb:76:8f:e1:9a:91:cd:
                    6f:6c:ef:78:6c:1d:df:b3:f7:22:5a:1d:eb:ea:a0:
                    43:08:0c:1a:f2:67:ec:a0:6c:56:a3:9b:2b:45:2b:
                    60:b7:35:bb:87:e9:32:01:ad:8f:d2:24:ee:3c:2b:
                    65:80:ac:60:5f:7e:ff:68:13:33:b7:3f:dd:a9:23:
                    08:89:cc:0a:3c:e4:e3:61:75:8a:29:9b:ba:1d:ba:
                    97:49:0e:a7:65:c3:3c:a3:b3:dc:c1:d9:26:a6:12:
                    47:0b:6f
                Exponent: 65537 (0x10001)
        X509v3 extensions:
            X509v3 Key Usage: critical
                Certificate Sign, CRL Sign
            X509v3 Basic Constraints: critical
                CA:TRUE
            X509v3 Subject Key Identifier: 
                B1:36:C0:06:8F:60:4D:C0:DA:6C:00:01:BB:1E:97:50:4E:0B:50:29
            X509v3 Authority Key Identifier: 
                keyid:B1:36:C0:06:8F:60:4D:C0:DA:6C:00:01:BB:1E:97:50:4E:0B:50:29

    Signature Algorithm: sha1WithRSAEncryption
         9e:e9:e2:ba:7e:ae:a0:e8:02:ce:ba:fa:e5:b2:00:93:15:48:
         be:f7:e0:b8:40:29:a9:bc:25:01:b1:e1:e2:23:1c:87:61:30:
         85:1c:63:31:96:92:68:d0:c9:fb:bc:26:6e:31:e5:57:7b:24:
         37:8d:9b:af:87:55:9f:4e:c9:8a:2d:2d:4d:15:48:06:44:9d:
         03:72:3a:cf:55:ef:4f:2e:82:a6:bb:29:cd:0e:bf:86:8a:5c:
         f3:aa:7d:84:cc:a5:62:6f:38:98:f1:49:be:c8:60:ef:94:84:
         13:05:14:1d:70:7e:f0:a6:78:bd:ed:9e:c3:9a:32:c7:79:a3:
         c5:48:2b:f1:22:d9:41:2c:cd:aa:bd:31:13:7b:5c:b0:a0:59:
         3b:f8:3d:ba:7d:57:ed:b7:5b:07:fa:a7:7f:89:2a:08:12:83:
         7f:73:c3:3f:ab:04:73:1d:ae:49:e9:97:7e:fa:95:a7:ff:b4:
         ab:1b:0e:41:86:a2:82:46:dc:85:c0:02:0b:6a:6c:e3:93:02:
         21:28:8c:82:1d:b8:28:f3:04:2d:a3:d2:76:da:c7:02:2e:d7:
         d9:0d:51:df:71:bb:fc:73:7e:84:2f:3c:82:ce:44:91:c3:05:
         35:6f:57:3d:b2:30:a0:1e:a9:99:e8:4d:48:b1:3d:cc:62:da:
         8a:bc:06:96:6b:e8:55:af:7f:da:e8:05:38:11:cb:f0:a7:00:
         70:2f:a1:2c:a4:a6:99:54:70:23:2b:40:aa:69:53:78:3f:15:
         05:90:83:09:82:e5:86:f9:ea:20:d5:b9:84:57:ef:7d:bd:0a:
         ce:33:cc:ee:b0:58:fc:88:20:c5:5b:39:ab:1a:01:d3:5e:be:
         59:d9:1a:a9:97:0c:ca:2d:f7:5f:57:63:20:60:95:31:24:82:
         da:8c:7a:93:3c:50:1c:5c:5d:06:73:be:74:b0:e4:0a:e3:d3:
         42:35:8d:92:2c:5c:90:93:43:e4:c8:b0:05:35:8a:2e:2e:44:
         dd:b7:f7:52:a7:dd:8a:c1:32:9e:07:b6:57:68:a1:3a:a1:00:
         ad:e5:e2:ac:9f:42:41:1b:71:1b:5b:ff:40:59:84:ea:5a:a1:
         4e:c4:a9:e7:f6:cb:d0:8b:8a:33:21:cb:5a:36:3e:17:9e:b3:
         f6:ef:20:91:93:c6:26:c2:06:96:76:55:2e:32:9e:e8:ea:9c:
         46:5c:1d:a8:51:03:33:39:5e:16:c9:a1:e9:0a:c7:23:16:9d:
         ec:db:17:6a:d1:17:a3:7e:41:78:79:55:f9:37:5f:a4:44:dc:
         54:4a:14:6d:12:bb:fd:01:de:8f:0f:28:e3:e6:33:2a:7a:96:
         9d:8f:7a:91:a1:75:d0:4e
-----BEGIN CERTIFICATE-----
MIIFTjCCAzagAwIBAgIBATANBgkqhkiG9w0BAQUFADA4MSkwJwYDVQQKDCAzMzQ2
YTg4ZDgwNjk0MjhkYWFmNjFlYjM2MmMzNGRhZDELMAkGA1UEAwwCY2EwHhcNMTQx
MjMwMjE0NDA1WhcNMjQxMjI5MjE0NDA1WjA4MSkwJwYDVQQKDCAzMzQ2YTg4ZDgw
Njk0MjhkYWFmNjFlYjM2MmMzNGRhZDELMAkGA1UEAwwCY2EwggIiMA0GCSqGSIb3
DQEBAQUAA4ICDwAwggIKAoICAQDpBwYIifE06guttxLdpaaBti/K1KeJRdw9YDd4
mbOJCtMj4BxoVYBWrfV0WnejvwM20eIEmUGoqHkBlcdl71CJie4EXCwkexNB8oP7
3z58I6O59fUZ79f2iaza35GnSlnT9cJJ+1XXtGI+39b+quiMgPJtRmnjbb3labHW
pUa8YPmvsLd/ejSi2lMCD3ihCIBriDXrtAH7nvvWpcs8WLxpGyj5xQkrqgwocPIA
BSGX4XyfCMKGhWgBe1Us40ett4KrTh6U/D+HpZFp9hzXk0GQ9zML7vY954BfOYRn
Qy4bQ8mSAr062JXLpWu+6iZcJCFUCekVuY8/IRpq6NrvatMm6CJJdjkyGSHH/pZM
1nUFlHGIv6neY7rBxn/AiEImlfdCMyyelsTY5CEN9/3dp2Nk5ve73fi+Ut51y3su
X8HEqhdhhxbCyPTfcvJ7XSr8YJDYthDqVYD5NjXzVRGhoor84HFUi9hWC9v5cFV6
LjKmGnAa20h4KSYjxqmgR8m3/hSrRhd4UDZw/ViviwJsUyI8lBmL15dwvYmPIxpU
63aP4ZqRzW9s73hsHd+z9yJaHevqoEMIDBryZ+ygbFajmytFK2C3NbuH6TIBrY/S
JO48K2WArGBffv9oEzO3P92pIwiJzAo85ONhdYopm7odupdJDqdlwzyjs9zB2Sam
EkcLbwIDAQABo2MwYTAOBgNVHQ8BAf8EBAMCAQYwDwYDVR0TAQH/BAUwAwEB/zAd
BgNVHQ4EFgQUsTbABo9gTcDabAABux6XUE4LUCkwHwYDVR0jBBgwFoAUsTbABo9g
TcDabAABux6XUE4LUCkwDQYJKoZIhvcNAQEFBQADggIBAJ7p4rp+rqDoAs66+uWy
AJMVSL734LhAKam8JQGx4eIjHIdhMIUcYzGWkmjQyfu8Jm4x5Vd7JDeNm6+HVZ9O
yYotLU0VSAZEnQNyOs9V708ugqa7Kc0Ov4aKXPOqfYTMpWJvOJjxSb7IYO+UhBMF
FB1wfvCmeL3tnsOaMsd5o8VIK/Ei2UEszaq9MRN7XLCgWTv4Pbp9V+23Wwf6p3+J
KggSg39zwz+rBHMdrknpl376laf/tKsbDkGGooJG3IXAAgtqbOOTAiEojIIduCjz
BC2j0nbaxwIu19kNUd9xu/xzfoQvPILORJHDBTVvVz2yMKAeqZnoTUixPcxi2oq8
BpZr6FWvf9roBTgRy/CnAHAvoSykpplUcCMrQKppU3g/FQWQgwmC5Yb56iDVuYRX
7329Cs4zzO6wWPyIIMVbOasaAdNevlnZGqmXDMot919XYyBglTEkgtqMepM8UBxc
XQZzvnSw5Arj00I1jZIsXJCTQ+TIsAU1ii4uRN2391Kn3YrBMp4HtldooTqhAK3l
4qyfQkEbcRtb/0BZhOpaoU7Eqef2y9CLijMhy1o2Phees/bvIJGTxibCBpZ2VS4y
nujqnEZcHahRAzM5XhbJoekKxyMWnezbF2rRF6N+QXh5Vfk3X6RE3FRKFG0Su/0B
3o8PKOPmMyp6lp2PepGhddBO
-----END CERTIFICATE-----
