Certificate:
    Data:
        Version: 3 (0x2)
        Serial Number: 1 (0x1)
    Signature Algorithm: sha1WithRSAEncryption
        Issuer: O=3346a88d8069428daaf61eb362c34dad, CN=ca
        Validity
            Not Before: Dec 30 21:44:14 2014 GMT
            Not After : Dec 29 21:44:14 2024 GMT
        Subject: O=3346a88d8069428daaf61eb362c34dad, CN=cb7761e292a24b0b9a86b2aa52d2cef3
        Subject Public Key Info:
            Public Key Algorithm: rsaEncryption
                Public-Key: (4096 bit)
                Modulus:
                    00:e2:f7:8b:dd:fe:c5:d1:21:a5:d6:ca:02:91:7f:
                    d9:84:13:a4:c6:e3:b5:22:cf:e6:f1:95:99:fd:8c:
                    1a:6f:e1:16:73:90:21:09:60:6b:de:ac:c8:e8:b5:
                    46:f6:13:98:5e:55:b4:6e:24:ed:71:42:e9:eb:f7:
                    dc:33:3b:b4:9f:a0:57:75:96:4b:2a:75:bd:94:bb:
                    62:83:b5:b6:e2:14:3b:e9:8c:13:e7:c4:8b:09:a7:
                    10:f5:2d:a4:a8:86:1a:f2:5f:95:a3:87:2d:69:94:
                    3f:d9:02:c3:ed:f6:f0:96:60:ef:24:40:e9:45:11:
                    37:34:bc:cc:d1:48:11:45:7a:4c:08:7b:64:fd:d4:
                    00:76:9f:25:11:c6:ce:d5:0e:0f:b8:4c:75:8e:bc:
                    8d:c5:ad:50:9d:dd:b7:fd:8b:43:af:d0:0b:17:8d:
                    a4:09:40:a6:cb:a9:0a:35:1e:cb:91:b8:67:31:86:
                    f1:eb:b9:9f:b0:da:69:34:a2:6d:c7:76:9a:21:6f:
                    7a:a0:4c:69:2f:1c:44:a2:20:af:b7:0e:22:94:4f:
                    83:4a:7d:11:33:d2:9e:13:4c:24:89:67:ac:4e:81:
                    3a:b0:49:af:84:ef:62:f4:7b:e3:bb:7e:a9:c6:ff:
                    9a:cb:79:30:ae:f3:1e:53:21:56:02:3a:17:fe:34:
                    86:41:2b:69:fc:a4:82:cd:40:c8:96:5e:ab:ae:2a:
                    98:3b:1d:b6:e0:dd:63:3e:16:1e:02:78:e7:7e:7b:
                    2a:c5:e7:8f:7d:30:bc:00:df:8d:01:ac:20:42:b8:
                    6c:bb:1e:cc:27:70:bc:88:86:3e:ed:d4:89:62:70:
                    60:0b:16:d0:fc:87:e6:14:c7:6f:48:97:b4:2a:63:
                    61:00:69:0b:5d:fb:4a:c2:94:9e:61:8b:01:a8:de:
                    57:e9:48:31:f8:a0:b2:47:eb:fd:87:bf:06:58:1d:
                    a2:d7:18:df:65:43:98:30:19:71:33:d2:f1:a0:e1:
                    e1:c5:93:0e:62:7b:ef:9b:20:b1:44:bf:68:a9:45:
                    ab:7d:77:49:ca:f2:85:fb:ed:9c:db:4c:5c:de:6e:
                    f4:ac:c4:d2:63:b4:0f:92:61:23:ea:7b:72:56:0e:
                    42:e4:7f:26:e9:59:a4:4f:18:7b:9a:cf:fc:cb:9e:
                    d8:30:78:73:a6:ed:a0:de:67:fe:5d:86:d2:56:d4:
                    76:5b:70:a9:a7:80:3f:e3:44:f8:92:38:e0:67:17:
                    81:90:e8:f5:67:b5:da:71:dd:01:45:24:5a:d8:d5:
                    9f:32:07:bd:5c:e6:20:44:79:1f:85:f2:2c:ef:0d:
                    51:0f:dc:95:e0:e1:28:a7:fb:de:f7:7a:fc:bb:01:
                    a2:41:83
                Exponent: 65537 (0x10001)
        X509v3 extensions:
            X509v3 Key Usage: critical
                Digital Signature, Key Encipherment
            X509v3 Basic Constraints: 
                CA:FALSE
            X509v3 Extended Key Usage: 
                TLS Web Client Authentication
            X509v3 Subject Key Identifier: 
                C4:EE:3C:7C:BF:4E:D9:05:21:8E:EE:5F:8E:F4:6A:1A:F1:F9:6B:0B
            X509v3 Authority Key Identifier: 
                keyid:B1:36:C0:06:8F:60:4D:C0:DA:6C:00:01:BB:1E:97:50:4E:0B:50:29

    Signature Algorithm: sha1WithRSAEncryption
         99:d2:f1:78:75:15:7b:5c:c1:af:2b:85:bc:3f:08:32:cc:b2:
         8d:4b:e2:de:17:07:6f:49:50:fa:a0:f1:b7:dd:6b:b5:88:b5:
         c4:61:49:12:69:f9:07:47:c8:86:d9:ad:2f:db:d3:a5:aa:13:
         e9:e9:0c:92:d9:f9:7e:c2:58:7f:7a:a7:64:c0:7b:51:6f:08:
         e2:d9:0b:29:6d:8b:a8:a3:4a:6b:30:47:ad:5e:f7:43:44:61:
         0d:ea:cd:7f:c5:af:6d:2e:cb:99:3e:bd:f5:24:f9:7c:d7:2b:
         17:c7:65:0e:aa:c2:bf:07:60:73:86:d0:d1:4e:9f:6b:63:a5:
         2d:f9:a8:ab:10:89:3f:37:0c:72:58:fc:71:3c:1a:e0:15:b9:
         62:3f:9c:b0:79:93:00:ae:d6:03:bd:fa:2d:04:35:75:af:47:
         c7:de:bc:62:b1:59:0e:87:73:b6:f3:e1:0f:9b:77:81:dc:7d:
         2d:47:05:18:2d:10:3b:1c:fa:ae:45:28:c2:7b:b5:65:d1:92:
         9d:b4:6d:f3:0e:9b:10:77:f4:1d:15:a1:15:fa:92:6e:a4:c3:
         f0:a1:4b:9a:6c:2d:79:5e:6c:81:9f:2a:f2:53:26:c5:72:93:
         d0:b5:b6:36:ba:b8:77:55:96:9e:c0:1c:ae:3b:6b:a6:b8:64:
         7e:e1:fa:21:ae:7f:b4:c8:d8:30:b2:88:d9:9e:31:e9:34:d7:
         43:03:49:9c:13:48:af:9e:64:8b:22:3c:cb:e9:67:3c:b6:be:
         b4:b1:80:b8:79:b6:97:20:04:5d:b5:1f:da:94:76:4f:75:77:
         6a:c3:9c:41:af:f6:d8:75:b4:17:93:0c:dd:a3:7b:51:e9:a1:
         ed:d7:b0:12:74:cc:2e:21:35:31:9f:25:c2:79:96:68:0e:43:
         e7:69:4c:2f:ec:a7:f4:0e:5b:39:8e:5c:3b:cd:9a:91:2a:c7:
         2f:97:a9:b9:3d:df:d7:fc:90:32:ae:9e:8d:c5:31:0c:ae:71:
         5e:a4:d4:ea:50:db:21:4e:29:36:49:73:5e:86:f6:4a:f2:3d:
         68:f4:2c:d9:f7:0e:68:55:d1:77:2e:b3:db:09:ff:6e:74:4d:
         c2:53:13:fb:29:b6:1d:a3:10:58:a3:07:cf:4f:30:01:39:39:
         00:20:dd:84:5e:ff:e2:91:e5:53:78:c9:b9:15:e8:42:8e:c2:
         d7:aa:93:47:da:0b:1e:a9:73:c8:03:ab:57:1c:39:a1:ce:e0:
         c3:12:c2:41:6d:3b:ac:0f:4f:b9:45:14:30:ac:51:62:4f:10:
         bd:a0:6a:a6:34:2c:a1:ba:6f:fd:dd:d3:5b:6b:97:a7:45:6e:
         35:6d:3f:fd:c2:78:40:b9
-----BEGIN CERTIFICATE-----
MIIFezCCA2OgAwIBAgIBATANBgkqhkiG9w0BAQUFADA4MSkwJwYDVQQKDCAzMzQ2
YTg4ZDgwNjk0MjhkYWFmNjFlYjM2MmMzNGRhZDELMAkGA1UEAwwCY2EwHhcNMTQx
MjMwMjE0NDE0WhcNMjQxMjI5MjE0NDE0WjBWMSkwJwYDVQQKDCAzMzQ2YTg4ZDgw
Njk0MjhkYWFmNjFlYjM2MmMzNGRhZDEpMCcGA1UEAwwgY2I3NzYxZTI5MmEyNGIw
YjlhODZiMmFhNTJkMmNlZjMwggIiMA0GCSqGSIb3DQEBAQUAA4ICDwAwggIKAoIC
AQDi94vd/sXRIaXWygKRf9mEE6TG47Uiz+bxlZn9jBpv4RZzkCEJYGverMjotUb2
E5heVbRuJO1xQunr99wzO7SfoFd1lksqdb2Uu2KDtbbiFDvpjBPnxIsJpxD1LaSo
hhryX5Wjhy1plD/ZAsPt9vCWYO8kQOlFETc0vMzRSBFFekwIe2T91AB2nyURxs7V
Dg+4THWOvI3FrVCd3bf9i0Ov0AsXjaQJQKbLqQo1HsuRuGcxhvHruZ+w2mk0om3H
dpohb3qgTGkvHESiIK+3DiKUT4NKfREz0p4TTCSJZ6xOgTqwSa+E72L0e+O7fqnG
/5rLeTCu8x5TIVYCOhf+NIZBK2n8pILNQMiWXquuKpg7Hbbg3WM+Fh4CeOd+eyrF
5499MLwA340BrCBCuGy7HswncLyIhj7t1IlicGALFtD8h+YUx29Il7QqY2EAaQtd
+0rClJ5hiwGo3lfpSDH4oLJH6/2HvwZYHaLXGN9lQ5gwGXEz0vGg4eHFkw5ie++b
ILFEv2ipRat9d0nK8oX77ZzbTFzebvSsxNJjtA+SYSPqe3JWDkLkfybpWaRPGHua
z/zLntgweHOm7aDeZ/5dhtJW1HZbcKmngD/jRPiSOOBnF4GQ6PVntdpx3QFFJFrY
1Z8yB71c5iBEeR+F8izvDVEP3JXg4Sin+973evy7AaJBgwIDAQABo3IwcDAOBgNV
HQ8BAf8EBAMCBaAwCQYDVR0TBAIwADATBgNVHSUEDDAKBggrBgEFBQcDAjAdBgNV
HQ4EFgQUxO48fL9O2QUhju5fjvRqGvH5awswHwYDVR0jBBgwFoAUsTbABo9gTcDa
bAABux6XUE4LUCkwDQYJKoZIhvcNAQEFBQADggIBAJnS8Xh1FXtcwa8rhbw/CDLM
so1L4t4XB29JUPqg8bfda7WItcRhSRJp+QdHyIbZrS/b06WqE+npDJLZ+X7CWH96
p2TAe1FvCOLZCylti6ijSmswR61e90NEYQ3qzX/Fr20uy5k+vfUk+XzXKxfHZQ6q
wr8HYHOG0NFOn2tjpS35qKsQiT83DHJY/HE8GuAVuWI/nLB5kwCu1gO9+i0ENXWv
R8fevGKxWQ6Hc7bz4Q+bd4HcfS1HBRgtEDsc+q5FKMJ7tWXRkp20bfMOmxB39B0V
oRX6km6kw/ChS5psLXlebIGfKvJTJsVyk9C1tja6uHdVlp7AHK47a6a4ZH7h+iGu
f7TI2DCyiNmeMek010MDSZwTSK+eZIsiPMvpZzy2vrSxgLh5tpcgBF21H9qUdk91
d2rDnEGv9th1tBeTDN2je1Hpoe3XsBJ0zC4hNTGfJcJ5lmgOQ+dpTC/sp/QOWzmO
XDvNmpEqxy+Xqbk939f8kDKuno3FMQyucV6k1OpQ2yFOKTZJc16G9kryPWj0LNn3
DmhV0Xcus9sJ/250TcJTE/spth2jEFijB89PMAE5OQAg3YRe/+KR5VN4ybkV6EKO
wteqk0faCx6pc8gDq1ccOaHO4MMSwkFtO6wPT7lFFDCsUWJPEL2gaqY0LKG6b/3d
01trl6dFbjVtP/3CeEC5
-----END CERTIFICATE-----
