Certificate:
    Data:
        Version: 3 (0x2)
        Serial Number: 1 (0x1)
    Signature Algorithm: sha1WithRSAEncryption
        Issuer: O=3346a88d8069428daaf61eb362c34dad, CN=ca
        Validity
            Not Before: Dec 30 21:44:12 2014 GMT
            Not After : Dec 29 21:44:12 2024 GMT
        Subject: O=3346a88d8069428daaf61eb362c34dad, CN=fee955cb4387437b86b1b85afd00c4c1
        Subject Public Key Info:
            Public Key Algorithm: rsaEncryption
                Public-Key: (4096 bit)
                Modulus:
                    00:ce:96:cc:6c:68:ab:4e:1d:da:dc:81:29:b9:bb:
                    33:a7:ab:01:20:2f:fb:8c:fb:1a:2b:31:06:64:eb:
                    43:fe:00:6e:0e:59:9a:c6:4d:c9:1e:69:1e:8d:87:
                    53:fa:25:a6:1f:03:de:c7:63:de:c0:2a:af:17:35:
                    84:c7:7b:45:2c:5a:5c:7a:77:e2:b4:2f:c6:a1:ba:
                    a2:ef:b7:32:e0:1b:be:69:ed:3a:39:58:a6:3e:2b:
                    09:7c:52:8b:0c:18:ef:10:28:45:1e:6c:00:1f:ce:
                    70:ff:f6:6b:89:14:3b:c2:1e:37:1d:b7:f8:61:e6:
                    36:56:c8:cc:e2:5c:13:a4:00:4d:cf:ac:ee:4b:c1:
                    0a:d1:8d:c7:5e:ef:bf:c4:bd:54:d5:a7:35:ca:f7:
                    02:58:f8:7d:a4:84:1a:94:7f:f7:cb:cd:46:74:8c:
                    96:b3:4e:54:76:b4:f4:c0:93:e7:de:24:51:d7:6c:
                    64:27:aa:92:74:89:b2:3d:a3:b2:38:35:46:ba:f2:
                    6c:93:3f:6c:25:47:48:41:03:41:97:8e:6d:c3:d1:
                    89:da:13:fc:2f:dc:31:e4:50:0f:88:2e:86:0d:a7:
                    f7:b3:21:8b:68:3f:19:0d:10:bc:c1:2e:f3:25:d3:
                    6a:b1:c8:b2:2f:06:e3:e2:9f:4a:ff:1b:74:c9:20:
                    d5:68:1b:d4:77:c5:49:58:b9:c8:91:05:f8:dd:40:
                    bd:27:fe:50:32:16:1b:7a:cd:0b:c4:3e:34:3e:79:
                    64:ae:86:66:d7:9d:44:11:30:5e:9a:7e:24:ab:d9:
                    ad:4e:45:ae:23:a2:ec:4d:fa:45:a5:e3:7a:81:7f:
                    eb:9a:78:c3:68:cf:10:86:b5:28:ac:92:58:0f:81:
                    2c:bd:4f:e7:ef:d4:6d:ea:41:14:28:de:c5:d9:0b:
                    2f:74:a9:d8:eb:8c:81:bf:a3:bd:46:4b:49:ab:93:
                    c8:ce:cc:df:8d:33:46:41:5f:13:3b:71:63:10:c2:
                    dc:41:8d:99:ba:2e:69:da:f4:ae:e0:b4:6e:0a:4a:
                    f8:6a:2e:73:21:6b:7f:31:c2:fa:83:34:26:00:1f:
                    51:3e:4c:47:16:86:45:73:44:db:41:cb:1f:6f:61:
                    da:74:db:41:2b:2c:b7:70:ec:38:d2:10:b3:c0:60:
                    6a:03:d7:91:bd:2b:57:b8:1c:4d:23:86:02:d0:cd:
                    1f:ac:a8:57:17:7a:d8:31:0e:0e:fb:70:ac:08:11:
                    6d:37:b1:36:bd:65:55:13:4e:2d:01:88:39:f1:13:
                    8f:bb:99:7f:51:a6:c8:5b:92:b4:a0:e0:13:b7:63:
                    02:38:e5:2b:c3:be:74:a0:e7:c2:72:7d:11:ec:38:
                    12:76:c9
                Exponent: 65537 (0x10001)
        X509v3 extensions:
            X509v3 Key Usage: critical
                Digital Signature, Key Encipherment
            X509v3 Basic Constraints: 
                CA:FALSE
            X509v3 Extended Key Usage: 
                TLS Web Client Authentication
            X509v3 Subject Key Identifier: 
                75:A9:96:1C:56:34:C9:A5:33:8D:48:9C:57:D3:FE:C2:FC:73:52:83
            X509v3 Authority Key Identifier: 
                keyid:B1:36:C0:06:8F:60:4D:C0:DA:6C:00:01:BB:1E:97:50:4E:0B:50:29

    Signature Algorithm: sha1WithRSAEncryption
         b1:07:13:e8:c5:f5:e8:c8:f6:6b:4b:09:d9:c4:cb:97:66:ec:
         4f:34:d8:9b:fd:26:88:60:10:f7:1c:57:53:f5:f0:1f:f3:03:
         a0:75:61:81:98:68:5c:6a:4b:ee:72:e2:8c:7a:c6:25:86:e1:
         e7:f0:df:1c:e5:ed:2c:37:ae:ba:e6:df:a6:f7:70:e0:92:b2:
         5c:90:9e:65:1e:48:a0:f3:7c:f4:30:00:3c:d0:20:97:a9:24:
         0f:1d:86:75:26:a5:bc:43:d6:bc:4f:6c:31:84:42:85:cb:35:
         db:3b:04:68:38:ba:0e:81:22:09:33:f5:a5:51:f9:ed:07:8e:
         54:39:5d:6a:bb:90:52:56:09:4c:13:a7:2e:b1:83:ca:54:b7:
         c8:10:b8:5f:36:71:5c:8e:45:96:1d:f4:f5:60:b2:f4:63:3b:
         07:bb:b9:33:11:1e:6f:33:87:ac:dc:f0:6b:35:d3:64:d5:a2:
         d2:b3:78:65:45:c9:6f:b5:e6:6e:ba:a5:1e:9a:7c:d6:ed:69:
         77:4f:5d:77:ab:10:c7:7d:f1:f1:b0:bd:ce:53:58:1f:63:44:
         db:2f:c2:56:6c:e2:f3:bc:51:87:13:18:cb:d3:ad:70:28:ab:
         c7:79:29:6c:1e:04:46:28:8d:fd:9f:d3:cd:8f:f3:f2:be:6f:
         52:a2:3b:34:1e:8a:23:bd:7e:e5:8f:80:50:11:86:e7:40:ef:
         e3:7f:a5:07:5e:99:21:97:35:7e:41:f7:30:38:62:5d:d1:36:
         a7:8f:b5:06:59:21:23:4b:89:0c:f6:10:bb:c8:f9:fb:c0:9b:
         4a:69:69:59:a7:bd:25:cc:bc:9b:95:ff:4b:90:10:a2:3a:2b:
         9d:99:f6:4d:95:3f:8f:d7:d8:82:80:50:a2:98:7b:bb:80:ee:
         45:cc:b7:de:56:2e:cf:b6:90:21:a5:70:ec:13:a3:38:86:18:
         16:24:10:ca:4e:7a:d4:df:21:85:b2:09:7b:23:c1:de:71:db:
         0d:b8:06:3c:5e:71:80:c7:7b:ca:51:5f:3e:24:b1:f7:5f:86:
         b3:92:5f:30:16:c4:e5:fa:22:8c:30:7a:50:d0:33:d3:f5:cc:
         9d:e1:70:8d:5c:ef:c1:ac:f9:c1:21:85:29:2b:2c:5a:80:64:
         70:59:51:ab:8d:d6:8d:93:0d:60:f5:ce:3c:68:2f:cd:60:ed:
         62:44:7d:5b:4a:fb:a6:a3:51:64:c4:18:15:d4:39:f5:eb:97:
         9a:4f:92:10:c7:78:ba:8d:04:b2:e8:ff:09:56:7e:84:9d:79:
         57:1e:89:ec:cf:ba:2a:13:88:2f:44:46:d1:69:65:02:8f:8f:
         a9:1e:d0:96:f7:38:09:6d
-----BEGIN CERTIFICATE-----
MIIFezCCA2OgAwIBAgIBATANBgkqhkiG9w0BAQUFADA4MSkwJwYDVQQKDCAzMzQ2
YTg4ZDgwNjk0MjhkYWFmNjFlYjM2MmMzNGRhZDELMAkGA1UEAwwCY2EwHhcNMTQx
MjMwMjE0NDEyWhcNMjQxMjI5MjE0NDEyWjBWMSkwJwYDVQQKDCAzMzQ2YTg4ZDgw
Njk0MjhkYWFmNjFlYjM2MmMzNGRhZDEpMCcGA1UEAwwgZmVlOTU1Y2I0Mzg3NDM3
Yjg2YjFiODVhZmQwMGM0YzEwggIiMA0GCSqGSIb3DQEBAQUAA4ICDwAwggIKAoIC
AQDOlsxsaKtOHdrcgSm5uzOnqwEgL/uM+xorMQZk60P+AG4OWZrGTckeaR6Nh1P6
JaYfA97HY97AKq8XNYTHe0UsWlx6d+K0L8ahuqLvtzLgG75p7To5WKY+Kwl8UosM
GO8QKEUebAAfznD/9muJFDvCHjcdt/hh5jZWyMziXBOkAE3PrO5LwQrRjcde77/E
vVTVpzXK9wJY+H2khBqUf/fLzUZ0jJazTlR2tPTAk+feJFHXbGQnqpJ0ibI9o7I4
NUa68myTP2wlR0hBA0GXjm3D0YnaE/wv3DHkUA+ILoYNp/ezIYtoPxkNELzBLvMl
02qxyLIvBuPin0r/G3TJINVoG9R3xUlYuciRBfjdQL0n/lAyFht6zQvEPjQ+eWSu
hmbXnUQRMF6afiSr2a1ORa4jouxN+kWl43qBf+uaeMNozxCGtSisklgPgSy9T+fv
1G3qQRQo3sXZCy90qdjrjIG/o71GS0mrk8jOzN+NM0ZBXxM7cWMQwtxBjZm6Lmna
9K7gtG4KSvhqLnMha38xwvqDNCYAH1E+TEcWhkVzRNtByx9vYdp020ErLLdw7DjS
ELPAYGoD15G9K1e4HE0jhgLQzR+sqFcXetgxDg77cKwIEW03sTa9ZVUTTi0BiDnx
E4+7mX9RpshbkrSg4BO3YwI45SvDvnSg58JyfRHsOBJ2yQIDAQABo3IwcDAOBgNV
HQ8BAf8EBAMCBaAwCQYDVR0TBAIwADATBgNVHSUEDDAKBggrBgEFBQcDAjAdBgNV
HQ4EFgQUdamWHFY0yaUzjUicV9P+wvxzUoMwHwYDVR0jBBgwFoAUsTbABo9gTcDa
bAABux6XUE4LUCkwDQYJKoZIhvcNAQEFBQADggIBALEHE+jF9ejI9mtLCdnEy5dm
7E802Jv9JohgEPccV1P18B/zA6B1YYGYaFxqS+5y4ox6xiWG4efw3xzl7Sw3rrrm
36b3cOCSslyQnmUeSKDzfPQwADzQIJepJA8dhnUmpbxD1rxPbDGEQoXLNds7BGg4
ug6BIgkz9aVR+e0HjlQ5XWq7kFJWCUwTpy6xg8pUt8gQuF82cVyORZYd9PVgsvRj
Owe7uTMRHm8zh6zc8Gs102TVotKzeGVFyW+15m66pR6afNbtaXdPXXerEMd98fGw
vc5TWB9jRNsvwlZs4vO8UYcTGMvTrXAoq8d5KWweBEYojf2f082P8/K+b1KiOzQe
iiO9fuWPgFARhudA7+N/pQdemSGXNX5B9zA4Yl3RNqePtQZZISNLiQz2ELvI+fvA
m0ppaVmnvSXMvJuV/0uQEKI6K52Z9k2VP4/X2IKAUKKYe7uA7kXMt95WLs+2kCGl
cOwToziGGBYkEMpOetTfIYWyCXsjwd5x2w24BjxecYDHe8pRXz4ksfdfhrOSXzAW
xOX6IowwelDQM9P1zJ3hcI1c78Gs+cEhhSkrLFqAZHBZUauN1o2TDWD1zjxoL81g
7WJEfVtK+6ajUWTEGBXUOfXrl5pPkhDHeLqNBLLo/wlWfoSdeVceiezPuioTiC9E
RtFpZQKPj6ke0Jb3OAlt
-----END CERTIFICATE-----
