Certificate:
    Data:
        Version: 3 (0x2)
        Serial Number: 1 (0x1)
    Signature Algorithm: sha1WithRSAEncryption
        Issuer: O=30a7b85e4c474715b03ba93a6b9d6a53, CN=ca
        Validity
            Not Before: Dec 30 21:43:56 2014 GMT
            Not After : Dec 29 21:43:56 2024 GMT
        Subject: O=30a7b85e4c474715b03ba93a6b9d6a53, CN=037e786dbd174056ab673c5a3094aee5
        Subject Public Key Info:
            Public Key Algorithm: rsaEncryption
                Public-Key: (4096 bit)
                Modulus:
                    00:b5:54:f1:f9:66:83:2f:6b:b2:62:62:65:ff:5b:
                    8b:f2:cf:43:bc:9e:9f:7c:d9:85:5e:0c:21:d7:f8:
                    db:7c:51:a5:0f:0f:31:f8:fc:f1:d1:45:c3:22:0d:
                    0a:f1:37:fa:e3:62:a8:6c:6a:4f:28:57:aa:9a:ae:
                    1a:1d:84:74:0f:81:ef:d4:1b:34:fe:72:25:65:df:
                    0a:28:49:d1:93:80:23:bb:b0:82:86:fb:67:03:31:
                    1d:ff:6b:41:66:61:ed:9b:10:37:4a:d1:f3:9a:ef:
                    6c:5b:1d:0c:bc:fd:b1:0e:09:d7:51:bd:03:af:25:
                    78:b0:e4:f2:b2:b5:92:a7:f2:6f:d4:d6:0a:48:9a:
                    8e:9d:50:d8:ad:6a:00:db:0a:8d:9c:1a:fd:91:e0:
                    90:1f:ff:96:2c:fd:89:1d:ff:9f:14:86:a0:a4:9d:
                    db:cc:4f:2b:9d:47:45:0e:39:10:20:f9:43:89:ed:
                    a2:aa:22:b1:da:91:3e:b0:9f:e5:65:a8:40:af:44:
                    9b:51:f3:e8:77:ca:42:0c:93:30:7d:1c:b9:89:cc:
                    12:fc:b9:1e:b2:32:2a:d2:80:06:41:05:d0:3f:84:
                    c4:32:79:52:20:30:e0:77:0b:b0:92:b2:81:36:07:
                    bf:21:9b:84:b1:16:16:a8:df:af:8c:6b:46:75:a4:
                    ec:48:c7:c6:80:e5:e4:f4:39:6e:c8:51:c5:9b:4b:
                    7c:d6:b5:5e:92:19:96:34:05:38:e6:c5:f1:b6:cf:
                    99:24:dc:28:8e:01:54:ec:73:3f:c6:ab:78:fe:5d:
                    d8:e1:d8:e8:12:60:5c:04:f5:33:8a:f9:63:69:2c:
                    69:68:c0:47:10:77:13:ee:1c:62:03:3a:92:59:3e:
                    c2:08:90:0a:b3:80:cb:7f:8a:cc:86:de:43:72:d5:
                    63:bc:bf:86:88:8f:f7:74:16:49:e7:39:68:af:d8:
                    1c:62:87:1e:57:9b:4b:a2:a3:a1:3a:5a:ea:cf:ee:
                    2a:f9:d8:e3:b0:24:b3:ea:2d:41:df:b2:8a:ae:06:
                    59:b7:eb:1e:4f:f7:3b:28:29:a2:bb:48:1d:3e:67:
                    0c:7f:71:21:5e:68:86:bc:d2:cd:3b:dc:8c:c9:ab:
                    10:b2:2a:23:62:94:32:be:e3:25:3a:b1:63:bc:ec:
                    da:06:9d:2c:5b:5d:f9:16:47:cf:49:fd:ab:f9:5e:
                    f1:e4:3e:2f:bb:9b:bf:a6:5d:c3:84:62:6c:ef:f0:
                    24:a5:02:a1:dc:ba:b1:52:40:67:7a:86:1e:67:67:
                    4a:7e:7a:86:c2:7a:db:e2:15:45:93:50:27:21:02:
                    ea:93:d1:7a:22:40:c4:0e:a3:7e:40:74:0d:bf:a6:
                    af:73:43
                Exponent: 65537 (0x10001)
        X509v3 extensions:
            X509v3 Key Usage: critical
                Digital Signature, Key Encipherment
            X509v3 Basic Constraints: 
                CA:FALSE
            X509v3 Extended Key Usage: 
                TLS Web Client Authentication
            X509v3 Subject Key Identifier: 
                53:74:0C:B9:CA:EF:BB:4C:1D:38:0C:E7:04:3F:10:CA:DE:CD:6D:23
            X509v3 Authority Key Identifier: 
                keyid:71:3A:2F:55:CE:CA:48:B2:4B:6A:4D:1B:93:0C:F6:81:AC:FC:84:06

    Signature Algorithm: sha1WithRSAEncryption
         6e:f1:64:a5:1b:35:eb:19:62:5f:5b:6e:e4:9c:13:10:2e:73:
         ac:90:93:33:17:61:ea:12:a2:54:61:93:ff:19:1b:59:4b:8e:
         5c:e5:5f:fe:6e:e9:6c:84:39:94:cc:eb:5f:ef:3d:19:a5:5e:
         9e:00:e6:f5:b2:df:1d:fd:13:58:dc:fc:18:d0:dc:98:9e:bb:
         e6:f4:ef:5d:bf:6b:14:fe:f8:a0:4b:11:56:e4:72:2c:cc:8a:
         48:e2:db:a3:1e:91:ae:04:a6:ed:89:77:73:d4:56:5a:a7:74:
         72:c9:c8:f7:8e:76:40:e0:0f:dc:8b:ed:ae:5b:c0:87:40:28:
         8f:4b:10:c2:3a:04:f0:92:8f:83:ac:66:94:83:21:f9:ad:7e:
         c7:6b:b7:31:5a:99:38:b9:9e:ae:95:ac:ee:03:1d:8c:e8:f3:
         be:a6:4b:a1:ee:94:7c:6f:ac:01:0b:01:fb:ee:31:c5:30:02:
         93:a8:39:f2:1d:3d:ea:37:1a:f4:8e:b3:25:1e:a8:96:83:66:
         0d:a5:83:7e:c6:8d:1b:33:55:15:88:d2:c6:59:4a:e2:9f:61:
         ea:bc:aa:8e:a2:c4:1a:e7:e5:51:e4:52:91:7f:70:48:b8:88:
         5c:0f:50:5a:5e:aa:4e:5c:7b:64:5e:7e:c7:fa:97:c0:f7:c3:
         4f:1f:4a:cd:ee:3d:62:16:e9:69:69:68:c7:04:4c:40:11:74:
         5d:ab:fd:8d:ee:83:5f:1a:d9:5b:fc:e4:4f:23:b0:95:b3:1a:
         c2:b7:5a:83:76:b1:b8:b9:a2:1d:21:99:bf:3c:9c:2f:87:33:
         bb:73:d6:af:36:49:f2:40:de:b3:0c:b6:ef:53:d9:67:6f:79:
         9d:a9:f2:17:a8:03:7b:c8:53:c8:b6:44:17:8c:17:42:df:36:
         d0:51:47:91:f2:d1:bb:32:69:58:47:24:7f:21:fa:12:70:58:
         a6:15:a1:45:7d:d0:aa:82:b3:9e:ed:e1:3f:ad:89:3b:ca:f5:
         90:3b:6c:2d:75:63:30:4d:7c:51:7a:1d:6d:dd:89:34:3c:db:
         fc:6e:22:de:76:4d:00:ae:b2:34:ce:fe:74:f9:0f:ab:26:12:
         da:51:bc:12:c6:af:83:bd:e6:73:1b:13:42:c7:b7:b9:8b:88:
         e1:cf:3e:a0:92:a8:7a:ee:e1:02:94:12:c3:5b:9e:89:3f:15:
         ff:50:bd:f3:86:75:4c:64:8d:14:2a:7c:84:ec:02:67:f6:6a:
         6f:3a:94:34:c8:d9:5e:34:a1:52:8a:3f:02:49:fe:6e:1f:ba:
         9a:e6:d4:fe:b3:5f:d6:d8:d7:a0:cc:21:01:d1:1c:2f:80:0a:
         17:bd:64:bb:64:b5:08:73
-----BEGIN CERTIFICATE-----
MIIFezCCA2OgAwIBAgIBATANBgkqhkiG9w0BAQUFADA4MSkwJwYDVQQKDCAzMGE3
Yjg1ZTRjNDc0NzE1YjAzYmE5M2E2YjlkNmE1MzELMAkGA1UEAwwCY2EwHhcNMTQx
MjMwMjE0MzU2WhcNMjQxMjI5MjE0MzU2WjBWMSkwJwYDVQQKDCAzMGE3Yjg1ZTRj
NDc0NzE1YjAzYmE5M2E2YjlkNmE1MzEpMCcGA1UEAwwgMDM3ZTc4NmRiZDE3NDA1
NmFiNjczYzVhMzA5NGFlZTUwggIiMA0GCSqGSIb3DQEBAQUAA4ICDwAwggIKAoIC
AQC1VPH5ZoMva7JiYmX/W4vyz0O8np982YVeDCHX+Nt8UaUPDzH4/PHRRcMiDQrx
N/rjYqhsak8oV6qarhodhHQPge/UGzT+ciVl3wooSdGTgCO7sIKG+2cDMR3/a0Fm
Ye2bEDdK0fOa72xbHQy8/bEOCddRvQOvJXiw5PKytZKn8m/U1gpImo6dUNitagDb
Co2cGv2R4JAf/5Ys/Ykd/58UhqCkndvMTyudR0UOORAg+UOJ7aKqIrHakT6wn+Vl
qECvRJtR8+h3ykIMkzB9HLmJzBL8uR6yMirSgAZBBdA/hMQyeVIgMOB3C7CSsoE2
B78hm4SxFhao36+Ma0Z1pOxIx8aA5eT0OW7IUcWbS3zWtV6SGZY0BTjmxfG2z5kk
3CiOAVTscz/Gq3j+Xdjh2OgSYFwE9TOK+WNpLGlowEcQdxPuHGIDOpJZPsIIkAqz
gMt/isyG3kNy1WO8v4aIj/d0FknnOWiv2Bxihx5Xm0uio6E6WurP7ir52OOwJLPq
LUHfsoquBlm36x5P9zsoKaK7SB0+Zwx/cSFeaIa80s073IzJqxCyKiNilDK+4yU6
sWO87NoGnSxbXfkWR89J/av5XvHkPi+7m7+mXcOEYmzv8CSlAqHcurFSQGd6hh5n
Z0p+eobCetviFUWTUCchAuqT0XoiQMQOo35AdA2/pq9zQwIDAQABo3IwcDAOBgNV
HQ8BAf8EBAMCBaAwCQYDVR0TBAIwADATBgNVHSUEDDAKBggrBgEFBQcDAjAdBgNV
HQ4EFgQUU3QMucrvu0wdOAznBD8Qyt7NbSMwHwYDVR0jBBgwFoAUcTovVc7KSLJL
ak0bkwz2gaz8hAYwDQYJKoZIhvcNAQEFBQADggIBAG7xZKUbNesZYl9bbuScExAu
c6yQkzMXYeoSolRhk/8ZG1lLjlzlX/5u6WyEOZTM61/vPRmlXp4A5vWy3x39E1jc
/BjQ3Jieu+b0712/axT++KBLEVbkcizMikji26Meka4Epu2Jd3PUVlqndHLJyPeO
dkDgD9yL7a5bwIdAKI9LEMI6BPCSj4OsZpSDIfmtfsdrtzFamTi5nq6VrO4DHYzo
876mS6HulHxvrAELAfvuMcUwApOoOfIdPeo3GvSOsyUeqJaDZg2lg37GjRszVRWI
0sZZSuKfYeq8qo6ixBrn5VHkUpF/cEi4iFwPUFpeqk5ce2Refsf6l8D3w08fSs3u
PWIW6WlpaMcETEARdF2r/Y3ug18a2Vv85E8jsJWzGsK3WoN2sbi5oh0hmb88nC+H
M7tz1q82SfJA3rMMtu9T2WdveZ2p8heoA3vIU8i2RBeMF0LfNtBRR5Hy0bsyaVhH
JH8h+hJwWKYVoUV90KqCs57t4T+tiTvK9ZA7bC11YzBNfFF6HW3diTQ82/xuIt52
TQCusjTO/nT5D6smEtpRvBLGr4O95nMbE0LHt7mLiOHPPqCSqHru4QKUEsNbnok/
Ff9QvfOGdUxkjRQqfITsAmf2am86lDTI2V40oVKKPwJJ/m4fuprm1P6zX9bY16DM
IQHRHC+AChe9ZLtktQhz
-----END CERTIFICATE-----
