Certificate:
    Data:
        Version: 3 (0x2)
        Serial Number: 1 (0x1)
    Signature Algorithm: sha1WithRSAEncryption
        Issuer: O=30a7b85e4c474715b03ba93a6b9d6a53, CN=ca
        Validity
            Not Before: Dec 30 21:43:55 2014 GMT
            Not After : Dec 29 21:43:55 2024 GMT
        Subject: O=30a7b85e4c474715b03ba93a6b9d6a53, CN=1e2f18e40836489cb49ca4e6afa03445
        Subject Public Key Info:
            Public Key Algorithm: rsaEncryption
                Public-Key: (4096 bit)
                Modulus:
                    00:b7:b4:cc:8f:ec:a8:07:45:2b:8e:f5:35:93:cc:
                    47:40:1f:81:95:fd:b9:10:e8:81:6d:76:ae:5f:d8:
                    32:88:e5:80:01:5c:20:88:87:af:4c:15:3f:8f:5c:
                    fa:47:08:2e:7c:e1:dc:1d:8e:68:e9:68:55:3c:6f:
                    53:c1:d3:65:4e:6c:68:b0:7e:bf:a5:d5:e9:24:61:
                    19:ac:86:e2:fe:0d:fb:96:d0:25:ba:f6:c6:bb:20:
                    97:79:7f:ba:14:5d:e6:a8:1b:29:7a:2e:16:8f:64:
                    6b:7d:2d:02:32:4f:47:87:a1:e2:05:84:aa:74:fb:
                    ab:78:38:7f:63:ab:65:43:20:34:a6:d4:09:50:a9:
                    cb:1a:0d:9d:60:2c:d9:2a:16:c8:0d:4c:92:63:2a:
                    13:75:11:13:6a:00:30:78:75:e2:73:c3:a5:ac:6c:
                    c0:72:c6:6b:1a:b4:23:04:e0:7f:91:46:c6:1a:ff:
                    7b:96:d8:ff:31:be:1c:ee:68:2b:a4:4f:1b:42:9a:
                    da:0b:d2:3b:d4:b6:5b:10:77:d9:b1:27:90:bb:fb:
                    7c:ca:f8:9f:55:f2:25:f2:3c:4d:ac:23:1d:61:a6:
                    83:1a:50:b7:db:9f:d9:00:2b:e7:0f:79:2a:a1:f6:
                    e0:e3:0b:9d:49:f9:e2:d1:b7:e5:fb:bf:8d:8a:85:
                    bb:71:1c:fe:9a:45:9c:48:06:53:88:8a:51:bb:7c:
                    53:40:3a:eb:c5:1e:da:3a:41:0d:6b:b4:45:39:1f:
                    04:38:d3:8f:1b:f6:a3:55:12:0f:03:42:3e:1e:43:
                    db:0a:6c:a7:b0:3a:76:36:78:83:d1:84:7b:96:fe:
                    ac:ed:fc:c3:3a:da:f4:d6:94:b5:21:aa:6a:ef:f7:
                    4a:2e:a6:f5:66:d3:e3:70:c5:d7:cd:a8:7a:59:89:
                    23:95:0c:cd:60:0c:1a:e7:dc:9c:18:4a:3a:b4:d7:
                    ea:75:f2:a6:cd:41:09:46:72:6d:aa:41:4e:47:2b:
                    a8:3a:97:5f:d2:d6:ff:ab:2b:63:75:ce:e4:50:37:
                    6c:3b:35:27:7b:ea:27:ec:86:97:3f:cc:89:83:09:
                    4d:1f:eb:9b:9a:13:fc:a0:95:87:95:2f:c5:57:83:
                    40:46:55:39:96:86:cc:a2:79:49:46:13:29:b0:1e:
                    96:6d:2e:fc:39:82:9e:6a:e8:45:f4:05:32:f9:0a:
                    86:3c:40:08:7c:82:cb:d2:9f:64:f5:38:87:8a:de:
                    47:1f:a1:81:48:2d:db:6a:44:c0:2c:b4:cb:7d:74:
                    a5:e9:75:f5:40:9e:42:70:1d:54:6d:66:2f:c4:8d:
                    04:37:46:0e:d7:a3:3d:eb:fd:40:7c:a7:bf:60:a4:
                    6e:ab:33
                Exponent: 65537 (0x10001)
        X509v3 extensions:
            X509v3 Key Usage: critical
                Digital Signature, Key Encipherment
            X509v3 Basic Constraints: 
                CA:FALSE
            X509v3 Extended Key Usage: 
                TLS Web Client Authentication
            X509v3 Subject Key Identifier: 
                06:93:02:03:56:74:1C:64:F7:04:76:F4:C9:26:AF:26:FF:BF:00:96
            X509v3 Authority Key Identifier: 
                keyid:71:3A:2F:55:CE:CA:48:B2:4B:6A:4D:1B:93:0C:F6:81:AC:FC:84:06

    Signature Algorithm: sha1WithRSAEncryption
         7e:b6:ee:4a:e5:e7:c7:33:ca:13:43:9a:fb:f2:d2:9d:dd:9f:
         dc:8f:45:7e:3d:4a:40:29:84:ea:28:d2:8b:1f:d5:54:b9:51:
         16:72:8c:de:fc:14:db:35:d6:26:22:f2:57:b6:0d:45:b8:e7:
         b5:a9:fb:d7:87:2c:12:4a:3c:e4:51:99:59:e1:cf:62:73:d7:
         12:70:df:8e:7f:aa:28:79:eb:ab:43:0b:b5:31:a5:ed:dd:9d:
         96:ed:0f:31:c6:f5:14:17:99:74:3e:b5:c8:e8:b1:14:42:40:
         80:b0:19:12:50:5f:f6:8d:b1:2b:c0:8e:f0:bc:a9:5b:5b:29:
         c9:23:0d:4c:8e:4a:ea:76:27:da:6c:11:5d:40:2d:c6:dd:59:
         b8:9e:af:f6:a1:8d:6d:6a:c3:40:9b:d8:f6:63:1b:a1:57:e3:
         30:78:03:92:34:22:bf:82:48:55:ff:0e:93:87:49:b3:aa:66:
         8f:e7:2b:f9:87:51:66:c5:a8:57:e7:0a:01:16:a1:73:ac:c5:
         fe:d4:fe:54:00:bd:57:0c:ab:aa:69:a7:3d:1b:f0:6c:41:cd:
         83:d8:b6:a1:6e:7d:a4:f8:07:0d:65:1f:15:22:9b:d4:9c:96:
         c5:bb:08:dd:c4:90:be:a7:23:c2:98:ef:4f:fc:59:2c:07:18:
         de:21:a5:8b:bd:37:23:81:df:60:90:33:9d:fa:83:5f:47:6d:
         eb:74:8d:a0:1a:3b:8f:58:93:ee:34:d6:0c:30:76:1e:df:b3:
         c4:67:82:b2:23:13:e7:4e:5a:b3:71:7b:da:ab:dd:2d:55:da:
         7a:01:01:00:f9:0b:da:8e:3c:c0:96:16:50:79:d5:ca:1f:38:
         89:0e:f6:22:db:6b:b9:ff:bc:b5:9d:a3:ff:a9:f2:14:9c:59:
         d1:7a:88:0b:b2:b0:e5:b4:09:55:a8:95:b3:0a:96:9b:b0:0f:
         12:f8:28:c2:27:ec:20:17:a4:1d:a7:ee:18:da:20:b8:c3:0e:
         89:09:54:2b:d0:50:14:fa:09:19:f9:3d:0b:0b:43:d3:aa:37:
         4a:39:85:d7:b4:f5:c8:31:0c:bd:8e:d5:e7:50:ab:d4:31:53:
         05:e3:a8:2e:d9:49:38:e4:6b:17:62:01:c7:5a:e3:cc:67:c7:
         b2:2b:a4:a5:1e:20:8e:06:4f:a3:ae:82:dc:94:51:88:33:a1:
         b6:1f:e2:87:f0:7d:33:6d:3e:33:73:87:73:1f:0b:81:74:10:
         e3:b5:c8:b0:a1:a7:6f:bd:c7:e8:86:d1:c5:fe:4d:d0:70:a0:
         6d:e9:c4:88:ff:dd:0a:73:65:43:a2:58:84:6a:5b:71:28:95:
         eb:d1:01:91:9d:a5:3c:14
-----BEGIN CERTIFICATE-----
MIIFezCCA2OgAwIBAgIBATANBgkqhkiG9w0BAQUFADA4MSkwJwYDVQQKDCAzMGE3
Yjg1ZTRjNDc0NzE1YjAzYmE5M2E2YjlkNmE1MzELMAkGA1UEAwwCY2EwHhcNMTQx
MjMwMjE0MzU1WhcNMjQxMjI5MjE0MzU1WjBWMSkwJwYDVQQKDCAzMGE3Yjg1ZTRj
NDc0NzE1YjAzYmE5M2E2YjlkNmE1MzEpMCcGA1UEAwwgMWUyZjE4ZTQwODM2NDg5
Y2I0OWNhNGU2YWZhMDM0NDUwggIiMA0GCSqGSIb3DQEBAQUAA4ICDwAwggIKAoIC
AQC3tMyP7KgHRSuO9TWTzEdAH4GV/bkQ6IFtdq5f2DKI5YABXCCIh69MFT+PXPpH
CC584dwdjmjpaFU8b1PB02VObGiwfr+l1ekkYRmshuL+DfuW0CW69sa7IJd5f7oU
XeaoGyl6LhaPZGt9LQIyT0eHoeIFhKp0+6t4OH9jq2VDIDSm1AlQqcsaDZ1gLNkq
FsgNTJJjKhN1ERNqADB4deJzw6WsbMByxmsatCME4H+RRsYa/3uW2P8xvhzuaCuk
TxtCmtoL0jvUtlsQd9mxJ5C7+3zK+J9V8iXyPE2sIx1hpoMaULfbn9kAK+cPeSqh
9uDjC51J+eLRt+X7v42KhbtxHP6aRZxIBlOIilG7fFNAOuvFHto6QQ1rtEU5HwQ4
048b9qNVEg8DQj4eQ9sKbKewOnY2eIPRhHuW/qzt/MM62vTWlLUhqmrv90oupvVm
0+NwxdfNqHpZiSOVDM1gDBrn3JwYSjq01+p18qbNQQlGcm2qQU5HK6g6l1/S1v+r
K2N1zuRQN2w7NSd76ifshpc/zImDCU0f65uaE/yglYeVL8VXg0BGVTmWhsyieUlG
EymwHpZtLvw5gp5q6EX0BTL5CoY8QAh8gsvSn2T1OIeK3kcfoYFILdtqRMAstMt9
dKXpdfVAnkJwHVRtZi/EjQQ3Rg7Xoz3r/UB8p79gpG6rMwIDAQABo3IwcDAOBgNV
HQ8BAf8EBAMCBaAwCQYDVR0TBAIwADATBgNVHSUEDDAKBggrBgEFBQcDAjAdBgNV
HQ4EFgQUBpMCA1Z0HGT3BHb0ySavJv+/AJYwHwYDVR0jBBgwFoAUcTovVc7KSLJL
ak0bkwz2gaz8hAYwDQYJKoZIhvcNAQEFBQADggIBAH627krl58czyhNDmvvy0p3d
n9yPRX49SkAphOoo0osf1VS5URZyjN78FNs11iYi8le2DUW457Wp+9eHLBJKPORR
mVnhz2Jz1xJw345/qih566tDC7Uxpe3dnZbtDzHG9RQXmXQ+tcjosRRCQICwGRJQ
X/aNsSvAjvC8qVtbKckjDUyOSup2J9psEV1ALcbdWbier/ahjW1qw0Cb2PZjG6FX
4zB4A5I0Ir+CSFX/DpOHSbOqZo/nK/mHUWbFqFfnCgEWoXOsxf7U/lQAvVcMq6pp
pz0b8GxBzYPYtqFufaT4Bw1lHxUim9SclsW7CN3EkL6nI8KY70/8WSwHGN4hpYu9
NyOB32CQM536g19Hbet0jaAaO49Yk+401gwwdh7fs8RngrIjE+dOWrNxe9qr3S1V
2noBAQD5C9qOPMCWFlB51cofOIkO9iLba7n/vLWdo/+p8hScWdF6iAuysOW0CVWo
lbMKlpuwDxL4KMIn7CAXpB2n7hjaILjDDokJVCvQUBT6CRn5PQsLQ9OqN0o5hde0
9cgxDL2O1edQq9QxUwXjqC7ZSTjkaxdiAcda48xnx7IrpKUeII4GT6OugtyUUYgz
obYf4ofwfTNtPjNzh3MfC4F0EOO1yLChp2+9x+iG0cX+TdBwoG3pxIj/3QpzZUOi
WIRqW3EolevRAZGdpTwU
-----END CERTIFICATE-----
