Certificate:
    Data:
        Version: 3 (0x2)
        Serial Number: 1 (0x1)
    Signature Algorithm: sha1WithRSAEncryption
        Issuer: O=30a7b85e4c474715b03ba93a6b9d6a53, CN=ca
        Validity
            Not Before: Dec 30 21:43:52 2014 GMT
            Not After : Dec 29 21:43:52 2024 GMT
        Subject: O=30a7b85e4c474715b03ba93a6b9d6a53, CN=21563f80f1324a39aef34650220eaa26
        Subject Public Key Info:
            Public Key Algorithm: rsaEncryption
                Public-Key: (4096 bit)
                Modulus:
                    00:a3:07:0d:7f:3c:06:61:44:49:67:ad:db:00:a8:
                    e2:73:ba:15:8d:cc:5f:28:5a:90:b0:72:5c:be:16:
                    a1:c8:ed:1d:cd:36:ed:23:91:d6:4a:1a:7d:93:2e:
                    5d:46:52:f1:db:6f:3e:07:06:7b:66:15:e9:9c:3a:
                    bf:2d:c2:fb:0f:f2:89:30:af:18:cf:83:9c:4c:0b:
                    c7:f5:3e:26:20:62:df:ca:2a:a2:ff:76:9e:04:08:
                    de:9b:bc:d5:f3:0b:0e:47:f4:69:d2:48:06:a8:65:
                    56:08:a8:60:bd:5b:c1:8e:2b:ae:ba:d9:d9:99:5b:
                    05:c1:da:ae:c9:18:68:6d:04:e8:72:ea:10:2c:ab:
                    9a:f7:4b:18:05:f3:c0:b5:5c:30:0d:c0:a8:66:b2:
                    d0:d9:0d:63:95:1e:6d:f1:5d:13:0e:64:fd:7d:30:
                    82:00:a4:76:ca:6d:20:7f:94:c6:fa:db:63:1d:80:
                    70:b3:1b:5c:df:83:d4:a7:d8:60:32:ce:71:bb:a6:
                    32:84:6e:fe:7d:5a:bb:76:70:d5:26:f9:53:30:2d:
                    42:cb:f0:e0:16:20:20:43:c1:71:e2:66:ce:17:0b:
                    e9:7e:8e:33:78:a3:43:77:9e:88:b6:1a:e7:3b:9b:
                    a0:54:65:24:63:f6:cf:d2:bd:e9:ed:f0:e2:62:84:
                    36:67:7f:9c:6c:c0:85:bf:35:54:85:ad:cd:30:e8:
                    d1:93:e9:2f:1e:18:2f:64:9a:5a:05:88:00:6f:d1:
                    0e:66:8c:55:00:75:6c:34:29:85:34:3d:ba:ac:b9:
                    0c:e0:a5:8d:95:2c:f7:c1:db:0a:95:b3:bc:ba:6b:
                    95:a8:15:9e:72:39:f0:62:81:14:ea:4e:e5:d9:be:
                    68:65:c6:ee:06:38:f6:7a:90:82:2f:6a:e0:1c:b9:
                    c3:f7:96:45:be:1e:38:f8:83:4d:54:1f:a4:fb:b2:
                    9d:1d:fd:1f:53:3f:89:ec:7a:a2:c7:5c:62:60:ce:
                    34:f2:cf:d7:90:a5:f5:8a:81:cd:23:2b:1b:29:6e:
                    0b:51:c5:79:c1:09:11:bf:f7:19:e5:b4:4b:9e:3d:
                    a1:a0:ea:da:7b:6b:99:c3:6d:6e:98:6d:1e:07:4c:
                    cd:dc:7c:94:fd:fc:47:a9:2e:3c:39:9a:e8:47:d3:
                    11:f6:e6:c6:ef:74:2b:2c:d6:d1:85:12:b2:6f:c1:
                    22:51:11:0b:94:95:47:0c:89:67:1b:de:f2:9e:3c:
                    46:7d:d2:fc:41:7c:d4:34:09:b5:3e:17:9f:4b:4f:
                    eb:cb:d2:75:3f:1d:f2:c1:79:9d:54:f0:73:fa:f9:
                    c4:9c:ed:08:e2:42:d0:e2:e7:07:60:c7:ba:6c:18:
                    73:9c:63
                Exponent: 65537 (0x10001)
        X509v3 extensions:
            X509v3 Key Usage: critical
                Digital Signature, Key Encipherment
            X509v3 Basic Constraints: 
                CA:FALSE
            X509v3 Extended Key Usage: 
                TLS Web Client Authentication
            X509v3 Subject Key Identifier: 
                63:57:5C:E7:D7:40:96:DC:E7:9D:B2:29:F2:34:53:A2:83:19:B9:2F
            X509v3 Authority Key Identifier: 
                keyid:71:3A:2F:55:CE:CA:48:B2:4B:6A:4D:1B:93:0C:F6:81:AC:FC:84:06

    Signature Algorithm: sha1WithRSAEncryption
         23:8e:dc:07:a5:8a:04:7f:6e:31:d2:3d:f5:51:b1:e2:bc:9e:
         40:ea:e9:da:04:77:09:30:fa:da:21:9c:c8:17:2b:e9:97:77:
         c2:1b:55:9b:e7:ef:b1:b3:3c:47:a7:00:aa:92:ee:54:2e:95:
         25:e8:05:0f:00:c7:df:20:aa:88:e1:fa:ef:7b:6a:da:08:79:
         b0:be:d7:62:f0:6d:2c:8a:0c:98:68:16:f1:e9:ea:8c:c8:5b:
         5c:65:c7:9b:13:11:99:78:4f:8a:aa:8a:14:32:c1:73:42:87:
         13:5f:6b:da:20:05:49:28:79:cc:d0:18:ff:ae:c3:4e:bd:80:
         a0:1f:fd:a0:53:06:0b:c5:9b:42:b6:5c:d2:17:c3:4a:65:b1:
         b3:63:c3:9d:d2:d6:61:52:16:9c:0c:1d:a5:be:ed:5c:30:42:
         04:83:61:d0:11:61:66:b5:70:87:a7:b4:99:8d:7e:55:7c:4f:
         7f:e8:4b:80:c0:08:67:80:9f:a0:c2:25:2c:1c:52:2e:66:36:
         d6:0d:ba:7e:71:94:0c:c7:77:2a:e6:72:f7:a3:b8:6f:9f:7e:
         96:94:93:8e:f1:01:16:64:1e:09:b3:be:ca:6b:f5:7b:4e:9d:
         b7:19:cb:a8:c9:f4:1b:39:cd:bf:ee:d4:c4:4a:dc:ca:78:a8:
         8c:21:1d:40:29:4d:d5:cc:d2:c1:46:85:65:14:3e:d2:75:cb:
         6d:77:28:05:53:cf:23:e8:60:84:91:d4:0b:a8:5d:aa:8f:75:
         95:7f:a9:ab:3c:9f:08:7e:46:63:ed:98:69:89:f3:3f:bd:62:
         de:b5:89:f6:6c:51:34:99:cc:4a:58:89:c5:68:36:6b:17:f9:
         26:87:96:f9:2d:d6:bb:15:70:a5:45:39:fd:eb:12:87:3e:a9:
         3c:8e:57:77:06:07:03:38:28:77:10:75:fa:c3:1e:bb:2e:f6:
         2e:95:31:68:f4:82:50:88:d3:78:22:bf:4c:8a:58:ef:75:ae:
         76:18:d8:c0:20:54:ce:a9:32:4c:43:58:9e:99:8a:6a:05:b9:
         94:05:86:a9:d5:cc:a8:49:a6:47:1c:96:38:69:e2:44:94:77:
         35:4d:b1:d8:73:c1:6c:10:8c:23:cd:76:d2:1b:c4:fe:e3:f0:
         fd:3b:37:39:66:9e:90:fd:7e:8e:b4:77:2c:7e:f3:4f:75:08:
         d1:9a:c9:c0:96:2c:c9:b4:b1:bd:45:32:52:4d:33:3e:30:d4:
         48:b5:db:02:ab:9b:15:93:45:81:82:16:79:61:5d:7c:5a:49:
         ed:6f:62:b9:e5:e3:cc:3a:06:74:4e:44:e5:87:44:23:6a:c1:
         ad:43:54:77:4b:49:a5:46
-----BEGIN CERTIFICATE-----
MIIFezCCA2OgAwIBAgIBATANBgkqhkiG9w0BAQUFADA4MSkwJwYDVQQKDCAzMGE3
Yjg1ZTRjNDc0NzE1YjAzYmE5M2E2YjlkNmE1MzELMAkGA1UEAwwCY2EwHhcNMTQx
MjMwMjE0MzUyWhcNMjQxMjI5MjE0MzUyWjBWMSkwJwYDVQQKDCAzMGE3Yjg1ZTRj
NDc0NzE1YjAzYmE5M2E2YjlkNmE1MzEpMCcGA1UEAwwgMjE1NjNmODBmMTMyNGEz
OWFlZjM0NjUwMjIwZWFhMjYwggIiMA0GCSqGSIb3DQEBAQUAA4ICDwAwggIKAoIC
AQCjBw1/PAZhRElnrdsAqOJzuhWNzF8oWpCwcly+FqHI7R3NNu0jkdZKGn2TLl1G
UvHbbz4HBntmFemcOr8twvsP8okwrxjPg5xMC8f1PiYgYt/KKqL/dp4ECN6bvNXz
Cw5H9GnSSAaoZVYIqGC9W8GOK6662dmZWwXB2q7JGGhtBOhy6hAsq5r3SxgF88C1
XDANwKhmstDZDWOVHm3xXRMOZP19MIIApHbKbSB/lMb622MdgHCzG1zfg9Sn2GAy
znG7pjKEbv59Wrt2cNUm+VMwLULL8OAWICBDwXHiZs4XC+l+jjN4o0N3noi2Guc7
m6BUZSRj9s/Svent8OJihDZnf5xswIW/NVSFrc0w6NGT6S8eGC9kmloFiABv0Q5m
jFUAdWw0KYU0PbqsuQzgpY2VLPfB2wqVs7y6a5WoFZ5yOfBigRTqTuXZvmhlxu4G
OPZ6kIIvauAcucP3lkW+Hjj4g01UH6T7sp0d/R9TP4nseqLHXGJgzjTyz9eQpfWK
gc0jKxspbgtRxXnBCRG/9xnltEuePaGg6tp7a5nDbW6YbR4HTM3cfJT9/EepLjw5
muhH0xH25sbvdCss1tGFErJvwSJREQuUlUcMiWcb3vKePEZ90vxBfNQ0CbU+F59L
T+vL0nU/HfLBeZ1U8HP6+cSc7QjiQtDi5wdgx7psGHOcYwIDAQABo3IwcDAOBgNV
HQ8BAf8EBAMCBaAwCQYDVR0TBAIwADATBgNVHSUEDDAKBggrBgEFBQcDAjAdBgNV
HQ4EFgQUY1dc59dAltznnbIp8jRTooMZuS8wHwYDVR0jBBgwFoAUcTovVc7KSLJL
ak0bkwz2gaz8hAYwDQYJKoZIhvcNAQEFBQADggIBACOO3AeligR/bjHSPfVRseK8
nkDq6doEdwkw+tohnMgXK+mXd8IbVZvn77GzPEenAKqS7lQulSXoBQ8Ax98gqojh
+u97atoIebC+12LwbSyKDJhoFvHp6ozIW1xlx5sTEZl4T4qqihQywXNChxNfa9og
BUkoeczQGP+uw069gKAf/aBTBgvFm0K2XNIXw0plsbNjw53S1mFSFpwMHaW+7Vww
QgSDYdARYWa1cIentJmNflV8T3/oS4DACGeAn6DCJSwcUi5mNtYNun5xlAzHdyrm
cvejuG+ffpaUk47xARZkHgmzvspr9XtOnbcZy6jJ9Bs5zb/u1MRK3Mp4qIwhHUAp
TdXM0sFGhWUUPtJ1y213KAVTzyPoYISR1AuoXaqPdZV/qas8nwh+RmPtmGmJ8z+9
Yt61ifZsUTSZzEpYicVoNmsX+SaHlvkt1rsVcKVFOf3rEoc+qTyOV3cGBwM4KHcQ
dfrDHrsu9i6VMWj0glCI03giv0yKWO91rnYY2MAgVM6pMkxDWJ6ZimoFuZQFhqnV
zKhJpkccljhp4kSUdzVNsdhzwWwQjCPNdtIbxP7j8P07NzlmnpD9fo60dyx+8091
CNGaycCWLMm0sb1FMlJNMz4w1Ei12wKrmxWTRYGCFnlhXXxaSe1vYrnl48w6BnRO
ROWHRCNqwa1DVHdLSaVG
-----END CERTIFICATE-----
