Certificate:
    Data:
        Version: 3 (0x2)
        Serial Number: 1 (0x1)
    Signature Algorithm: sha1WithRSAEncryption
        Issuer: O=30a7b85e4c474715b03ba93a6b9d6a53, CN=ca
        Validity
            Not Before: Dec 30 21:43:51 2014 GMT
            Not After : Dec 29 21:43:51 2024 GMT
        Subject: O=30a7b85e4c474715b03ba93a6b9d6a53, CN=589a42325c154f9a9daf15cb602f3fc3
        Subject Public Key Info:
            Public Key Algorithm: rsaEncryption
                Public-Key: (4096 bit)
                Modulus:
                    00:a3:ad:3d:b2:f1:3d:cd:8c:35:fd:43:8d:98:30:
                    56:87:45:6b:62:f9:a7:40:81:b8:08:9d:29:11:de:
                    d4:30:c4:60:20:61:31:f1:73:f1:74:c7:f9:e9:24:
                    cc:97:2c:23:ad:56:5d:b7:95:c5:58:af:b1:ac:ce:
                    0a:db:c1:29:a2:41:e9:66:b5:58:94:05:42:c9:b1:
                    32:5c:7f:57:dd:60:44:eb:1f:52:27:2d:08:1e:c3:
                    e1:e5:58:3d:3c:ba:15:3d:ac:86:bc:75:af:8f:6d:
                    2a:fe:12:b5:89:a7:e6:ee:73:59:08:56:29:b5:49:
                    1e:7b:59:ef:33:37:e6:73:cb:48:68:71:f1:42:e3:
                    7f:d3:4f:bd:78:e6:6d:48:21:f5:b3:c9:c2:7e:cf:
                    f7:16:28:80:15:1b:9e:60:60:a9:c6:ee:33:2c:d9:
                    3d:9e:a2:61:65:68:d5:76:05:f5:b7:d2:c9:00:f7:
                    e3:e7:ab:09:59:67:94:a3:05:77:cf:b9:21:ed:e4:
                    de:93:e0:7c:7e:b9:10:aa:63:34:cb:35:29:18:4c:
                    9d:ff:15:4a:80:e3:cf:04:2e:57:81:c9:0e:90:ef:
                    d2:84:63:1e:51:9d:43:59:eb:c0:28:23:55:b7:e4:
                    f1:9b:45:14:99:06:6b:b1:73:00:64:35:95:14:60:
                    2e:0b:88:77:5d:e5:59:41:1d:1d:4c:77:df:f0:39:
                    23:87:f0:ab:4e:fa:c6:84:29:e9:99:1c:2c:c5:eb:
                    28:f3:2f:b1:6b:8c:45:ca:06:90:92:b0:97:25:1e:
                    71:99:5b:2b:fb:2e:b9:79:03:41:2f:de:63:8d:47:
                    ed:18:50:75:ec:44:93:67:64:ff:86:85:5a:93:61:
                    5f:9b:1d:91:d1:58:84:62:f9:a9:b9:ab:94:60:30:
                    37:00:5a:cf:43:97:17:2f:8e:22:17:54:0f:48:f5:
                    79:e4:a5:ad:0e:c7:da:b4:2c:01:e7:83:ed:e6:83:
                    8c:ca:55:c9:be:a8:2d:54:02:64:6d:a3:2f:d4:a7:
                    fd:8d:de:95:23:d2:c2:9f:f0:b0:34:9f:92:aa:9a:
                    ad:19:3c:c5:2a:10:c5:2d:b2:f1:9e:7c:9e:3c:dd:
                    cb:55:11:a9:7b:cb:95:28:d4:96:70:70:99:3b:3d:
                    d8:46:1d:14:2b:81:63:69:c5:e3:e7:8b:f6:77:70:
                    87:25:06:65:6d:e4:75:88:3b:69:c6:3e:29:58:5d:
                    fa:b1:5b:9d:fa:bb:39:94:3d:dc:56:99:fc:1b:c3:
                    e9:bb:da:7a:d6:ae:a4:0d:51:b8:17:86:a0:ec:23:
                    4c:93:2a:70:e6:a7:47:10:3b:5f:86:02:c8:d4:43:
                    62:14:6f
                Exponent: 65537 (0x10001)
        X509v3 extensions:
            X509v3 Key Usage: critical
                Digital Signature, Key Encipherment
            X509v3 Basic Constraints: 
                CA:FALSE
            X509v3 Extended Key Usage: 
                TLS Web Server Authentication, TLS Web Client Authentication
            X509v3 Subject Key Identifier: 
                5B:10:66:AE:3D:33:C7:55:7F:1E:E9:6B:40:DF:C2:3C:1C:3D:1C:B2
            X509v3 Authority Key Identifier: 
                keyid:71:3A:2F:55:CE:CA:48:B2:4B:6A:4D:1B:93:0C:F6:81:AC:FC:84:06

    Signature Algorithm: sha1WithRSAEncryption
         9c:5b:9e:0c:d8:28:29:4c:91:d0:40:1d:aa:3c:a9:49:73:fc:
         7c:ad:3d:9c:f4:97:32:a5:bc:07:3d:2f:f0:49:ff:a1:2d:bd:
         f6:f3:5b:14:c1:38:aa:0e:83:8b:ba:44:3f:24:14:b2:2e:0c:
         75:a9:91:f6:39:7a:7f:d4:32:50:44:bb:24:29:0d:bf:ad:c9:
         4d:ca:41:c0:13:55:77:7d:77:4c:28:99:76:d2:8f:39:8f:30:
         0c:f6:c9:80:f9:b7:d8:60:57:de:ca:33:80:25:2c:69:ce:2a:
         b1:64:90:1f:17:4e:99:94:1c:bc:71:4e:37:21:1c:bb:e6:ab:
         40:8f:4a:58:37:57:3a:a9:8c:ee:04:4b:99:f3:ec:ba:c4:e1:
         d2:f2:5c:7e:33:89:f6:8e:40:54:55:fa:f2:13:c4:a8:8c:df:
         be:79:c4:cc:0e:fe:30:4d:17:73:a2:80:26:0b:d6:7b:94:2e:
         c7:d9:e4:06:e8:68:2b:7f:c8:c8:c9:c2:c5:ca:1a:7d:e8:c6:
         9e:9e:2f:d9:f7:d3:79:06:f6:38:d2:23:03:5f:39:70:12:d1:
         88:9c:33:51:d7:e8:52:41:88:7c:68:ed:96:01:e3:b7:79:0c:
         cf:c5:25:47:2e:c1:4c:6a:1d:47:ef:c9:86:d1:8a:21:07:e0:
         02:ad:9d:e1:61:a0:06:66:5f:98:06:03:90:a5:d3:33:3b:f5:
         02:b0:99:3c:8b:c6:5c:fe:78:29:ab:01:49:03:0e:c5:99:7a:
         f6:37:fd:4e:35:52:76:fc:b9:57:00:68:4c:3c:8b:ea:ea:13:
         34:3c:14:a0:59:35:c0:e2:f2:17:b1:1d:77:33:aa:ad:70:e7:
         15:f4:f3:c9:cc:e5:64:ed:41:b0:5f:8c:e3:7c:a0:81:b5:5b:
         f5:c2:f0:04:ee:37:5e:7d:16:cf:e9:5d:12:c0:01:c4:ba:10:
         11:ae:12:9c:32:d3:66:68:32:ec:6f:56:ed:d5:c9:dc:ec:65:
         90:66:10:01:92:db:19:53:2d:99:0a:05:ee:8e:6d:c3:72:c9:
         7a:ed:86:2d:2f:0a:1d:6f:cd:41:ae:70:23:12:09:e7:15:6f:
         17:11:f5:6c:15:ee:8f:98:c9:76:6c:3a:94:ee:96:9c:0e:a0:
         a1:fc:14:bc:95:f3:3c:94:89:12:d8:09:2f:e0:7a:51:a7:43:
         82:20:76:21:ad:fd:e7:fc:3a:f5:2a:43:24:dc:fe:01:37:2b:
         97:81:c6:50:80:06:93:59:77:44:7d:8f:6a:b0:aa:2d:fe:01:
         d1:aa:b8:f3:d6:09:95:3a:ac:68:a3:d6:83:6a:a5:6f:13:af:
         44:61:23:18:d9:3d:22:ec
-----BEGIN CERTIFICATE-----
MIIFhTCCA22gAwIBAgIBATANBgkqhkiG9w0BAQUFADA4MSkwJwYDVQQKDCAzMGE3
Yjg1ZTRjNDc0NzE1YjAzYmE5M2E2YjlkNmE1MzELMAkGA1UEAwwCY2EwHhcNMTQx
MjMwMjE0MzUxWhcNMjQxMjI5MjE0MzUxWjBWMSkwJwYDVQQKDCAzMGE3Yjg1ZTRj
NDc0NzE1YjAzYmE5M2E2YjlkNmE1MzEpMCcGA1UEAwwgNTg5YTQyMzI1YzE1NGY5
YTlkYWYxNWNiNjAyZjNmYzMwggIiMA0GCSqGSIb3DQEBAQUAA4ICDwAwggIKAoIC
AQCjrT2y8T3NjDX9Q42YMFaHRWti+adAgbgInSkR3tQwxGAgYTHxc/F0x/npJMyX
LCOtVl23lcVYr7GszgrbwSmiQelmtViUBULJsTJcf1fdYETrH1InLQgew+HlWD08
uhU9rIa8da+PbSr+ErWJp+buc1kIVim1SR57We8zN+Zzy0hocfFC43/TT7145m1I
IfWzycJ+z/cWKIAVG55gYKnG7jMs2T2eomFlaNV2BfW30skA9+PnqwlZZ5SjBXfP
uSHt5N6T4Hx+uRCqYzTLNSkYTJ3/FUqA488ELleByQ6Q79KEYx5RnUNZ68AoI1W3
5PGbRRSZBmuxcwBkNZUUYC4LiHdd5VlBHR1Md9/wOSOH8KtO+saEKemZHCzF6yjz
L7FrjEXKBpCSsJclHnGZWyv7Lrl5A0Ev3mONR+0YUHXsRJNnZP+GhVqTYV+bHZHR
WIRi+am5q5RgMDcAWs9DlxcvjiIXVA9I9Xnkpa0Ox9q0LAHng+3mg4zKVcm+qC1U
AmRtoy/Up/2N3pUj0sKf8LA0n5Kqmq0ZPMUqEMUtsvGefJ483ctVEal7y5Uo1JZw
cJk7PdhGHRQrgWNpxePni/Z3cIclBmVt5HWIO2nGPilYXfqxW536uzmUPdxWmfwb
w+m72nrWrqQNUbgXhqDsI0yTKnDmp0cQO1+GAsjUQ2IUbwIDAQABo3wwejAOBgNV
HQ8BAf8EBAMCBaAwCQYDVR0TBAIwADAdBgNVHSUEFjAUBggrBgEFBQcDAQYIKwYB
BQUHAwIwHQYDVR0OBBYEFFsQZq49M8dVfx7pa0DfwjwcPRyyMB8GA1UdIwQYMBaA
FHE6L1XOykiyS2pNG5MM9oGs/IQGMA0GCSqGSIb3DQEBBQUAA4ICAQCcW54M2Cgp
TJHQQB2qPKlJc/x8rT2c9JcypbwHPS/wSf+hLb3281sUwTiqDoOLukQ/JBSyLgx1
qZH2OXp/1DJQRLskKQ2/rclNykHAE1V3fXdMKJl20o85jzAM9smA+bfYYFfeyjOA
JSxpziqxZJAfF06ZlBy8cU43IRy75qtAj0pYN1c6qYzuBEuZ8+y6xOHS8lx+M4n2
jkBUVfryE8SojN++ecTMDv4wTRdzooAmC9Z7lC7H2eQG6Ggrf8jIycLFyhp96Mae
ni/Z99N5BvY40iMDXzlwEtGInDNR1+hSQYh8aO2WAeO3eQzPxSVHLsFMah1H78mG
0YohB+ACrZ3hYaAGZl+YBgOQpdMzO/UCsJk8i8Zc/ngpqwFJAw7FmXr2N/1ONVJ2
/LlXAGhMPIvq6hM0PBSgWTXA4vIXsR13M6qtcOcV9PPJzOVk7UGwX4zjfKCBtVv1
wvAE7jdefRbP6V0SwAHEuhARrhKcMtNmaDLsb1bt1cnc7GWQZhABktsZUy2ZCgXu
jm3Dcsl67YYtLwodb81BrnAjEgnnFW8XEfVsFe6PmMl2bDqU7pacDqCh/BS8lfM8
lIkS2Akv4HpRp0OCIHYhrf3n/Dr1KkMk3P4BNyuXgcZQgAaTWXdEfY9qsKot/gHR
qrjz1gmVOqxoo9aDaqVvE69EYSMY2T0i7A==
-----END CERTIFICATE-----
