Certificate:
    Data:
        Version: 3 (0x2)
        Serial Number: 1 (0x1)
    Signature Algorithm: sha1WithRSAEncryption
        Issuer: O=30a7b85e4c474715b03ba93a6b9d6a53, CN=ca
        Validity
            Not Before: Dec 30 21:43:54 2014 GMT
            Not After : Dec 29 21:43:54 2024 GMT
        Subject: O=30a7b85e4c474715b03ba93a6b9d6a53, CN=64152b82e1cc4a9fb638cd3aec55d2e1
        Subject Public Key Info:
            Public Key Algorithm: rsaEncryption
                Public-Key: (4096 bit)
                Modulus:
                    00:bc:50:bd:b4:9e:96:f9:3f:46:55:34:26:5c:37:
                    2d:83:67:40:5e:43:ac:87:c6:1e:51:7f:81:d2:ea:
                    ed:75:f4:c3:60:42:a2:3a:34:b6:ce:4e:dd:5c:d6:
                    66:b4:2b:e3:89:23:fa:87:55:3d:12:22:36:56:6e:
                    39:a6:ab:7f:35:1d:0c:60:35:20:97:7a:dd:63:5d:
                    c0:0a:ef:bc:21:03:af:3c:d4:81:ec:cc:ee:91:a5:
                    9c:97:08:61:2e:00:47:2e:93:11:c4:67:fc:38:7c:
                    7e:0f:64:1a:b6:2d:9d:14:2b:76:de:5d:75:3e:03:
                    07:97:e1:9a:74:de:e5:ec:58:e9:82:26:ac:ef:df:
                    70:d9:a8:ab:e7:78:75:03:78:e0:a2:95:bb:0a:78:
                    e0:c4:0d:72:15:45:0b:f4:71:67:38:bb:b9:50:57:
                    ac:01:4f:8f:7d:7e:b8:ec:ee:9d:df:89:45:01:7b:
                    1d:e1:a6:ca:19:63:58:4e:36:b5:a4:df:e8:ce:a1:
                    75:d1:5b:5b:3f:04:7f:b1:ea:00:1e:c6:fb:3f:2f:
                    d1:25:52:97:98:37:a2:c4:82:1d:4a:b9:68:2e:20:
                    b9:36:2c:35:7d:b7:60:5c:37:8c:61:27:6b:65:85:
                    6c:36:25:ef:47:8e:fc:a4:74:be:22:18:99:5a:77:
                    5f:5c:ee:c9:1a:84:10:23:76:f6:bd:7c:43:5b:57:
                    37:3e:68:96:aa:bf:b4:45:fa:b4:de:e1:b5:01:40:
                    88:d3:01:15:3c:99:99:75:5b:70:25:1c:43:1d:58:
                    8d:90:60:94:fd:6d:84:29:95:d4:0c:f6:49:fb:90:
                    29:a2:a0:1f:78:df:f7:02:dc:2f:91:4f:60:90:92:
                    d8:cf:4d:89:24:64:a6:1e:a2:8b:8d:ed:82:bf:a8:
                    98:9b:7c:c0:f0:ee:a3:c4:0a:80:b6:5f:fc:b7:fe:
                    a2:a4:43:03:86:86:29:c0:38:50:a4:56:c8:b3:d6:
                    af:8b:91:20:db:01:50:f4:da:dc:b9:82:7c:f1:1d:
                    6f:46:98:65:15:67:b6:39:00:a0:4b:ac:fd:9c:0b:
                    96:d7:c8:67:69:34:a5:3d:92:7b:07:f7:8f:3f:5a:
                    f0:76:04:0a:64:c4:8c:14:09:64:ac:f0:bc:e3:12:
                    6e:63:7b:c5:f7:7f:48:0b:a7:7d:88:a9:e8:23:bf:
                    5b:53:fc:0a:2b:ce:37:fb:0c:c8:5d:49:80:01:95:
                    9f:20:7e:58:05:60:f0:63:d0:1b:a9:c0:ca:04:14:
                    2c:fe:e4:44:dd:50:ab:60:52:59:7c:58:46:48:cb:
                    b9:1a:86:7c:71:7b:70:ae:64:e1:c2:71:82:24:b1:
                    6e:0e:13
                Exponent: 65537 (0x10001)
        X509v3 extensions:
            X509v3 Key Usage: critical
                Digital Signature, Key Encipherment
            X509v3 Basic Constraints: 
                CA:FALSE
            X509v3 Extended Key Usage: 
                TLS Web Client Authentication
            X509v3 Subject Key Identifier: 
                C8:8B:33:9A:AE:96:E5:8A:43:AE:20:9E:73:EE:74:FE:4D:91:56:45
            X509v3 Authority Key Identifier: 
                keyid:71:3A:2F:55:CE:CA:48:B2:4B:6A:4D:1B:93:0C:F6:81:AC:FC:84:06

    Signature Algorithm: sha1WithRSAEncryption
         a9:76:4a:30:1c:aa:70:de:3c:e1:9b:47:e4:de:3b:55:71:7b:
         30:51:74:67:6d:c3:e9:59:6d:d8:0e:3d:cc:45:8c:5b:6d:15:
         11:6f:db:4f:c3:41:2e:73:48:62:48:d7:ce:25:57:c7:d6:04:
         b8:dc:49:0e:ee:70:a0:b8:c2:d6:82:0b:1d:52:ff:2f:45:f5:
         dc:49:fe:9b:78:bb:98:6c:3e:fe:65:3e:7e:60:91:78:d5:5e:
         74:e3:54:5a:95:a1:81:79:28:ee:4b:24:00:76:4f:5d:a6:0c:
         77:a8:98:ed:ae:e6:c2:02:3f:c1:d2:c2:49:7a:0d:88:dd:85:
         ee:9d:4e:f0:55:98:82:32:53:43:9d:57:f5:93:38:c7:95:98:
         db:39:76:1f:c1:eb:ec:cd:e8:d4:1f:ac:02:73:d9:80:1b:bc:
         ce:ce:e6:17:f7:43:df:c7:10:98:8a:0a:14:98:62:ff:73:a9:
         82:7e:b8:32:2d:5c:bb:91:a2:7a:4f:37:dc:7b:b7:a1:f8:ae:
         7b:76:98:4c:4b:50:de:e9:12:a8:eb:9e:a5:1c:a4:cc:d0:55:
         05:6f:ac:d5:b6:19:3b:b6:fd:f9:3b:6c:30:3e:06:a4:e4:e7:
         9a:fd:b6:23:4f:a7:ac:04:75:bb:b8:af:57:c4:39:21:4a:8e:
         b2:b3:93:6a:d8:d8:ab:c5:0e:1c:8a:f2:3b:ff:5c:76:a2:6b:
         9a:d3:6b:73:f6:a4:46:ed:a2:a8:43:6f:6c:bd:fb:1e:0b:0c:
         07:49:f0:d4:f3:99:64:94:93:6a:78:33:0a:3c:66:cc:8f:38:
         fa:4f:ea:f0:cc:ce:50:58:6e:b5:39:cf:b2:e1:8c:5f:7a:81:
         6e:51:7a:90:56:f6:35:fe:4a:8d:c1:c2:29:8c:ef:4c:48:6c:
         c7:b0:a7:f7:86:a8:f2:0d:46:6b:ca:f6:6a:a7:86:84:82:b1:
         f9:86:eb:e9:39:9e:76:ce:77:1a:86:dd:20:c0:a6:8c:7b:6e:
         4e:a4:09:e1:08:45:04:8c:1a:c4:76:a6:8e:49:36:28:76:06:
         01:23:51:d7:e8:c1:f8:04:cc:b9:0c:d5:d1:35:0a:60:dd:f4:
         dd:42:3f:45:fa:9f:c2:cf:1e:f7:9d:90:fb:a8:f6:21:72:b0:
         89:32:44:7f:3a:c5:05:78:d6:8e:42:71:93:7a:c3:4c:27:31:
         cf:dd:b3:6b:d5:3a:3d:7a:03:81:fe:e3:79:1a:c8:93:a0:c7:
         d9:a1:22:e3:19:73:87:46:ce:74:60:49:f9:5e:94:e6:c9:b7:
         9f:31:67:b0:d7:1d:ac:26:2d:9f:56:fd:70:f6:87:ab:a0:82:
         96:98:e3:42:69:44:e1:1e
-----BEGIN CERTIFICATE-----
MIIFezCCA2OgAwIBAgIBATANBgkqhkiG9w0BAQUFADA4MSkwJwYDVQQKDCAzMGE3
Yjg1ZTRjNDc0NzE1YjAzYmE5M2E2YjlkNmE1MzELMAkGA1UEAwwCY2EwHhcNMTQx
MjMwMjE0MzU0WhcNMjQxMjI5MjE0MzU0WjBWMSkwJwYDVQQKDCAzMGE3Yjg1ZTRj
NDc0NzE1YjAzYmE5M2E2YjlkNmE1MzEpMCcGA1UEAwwgNjQxNTJiODJlMWNjNGE5
ZmI2MzhjZDNhZWM1NWQyZTEwggIiMA0GCSqGSIb3DQEBAQUAA4ICDwAwggIKAoIC
AQC8UL20npb5P0ZVNCZcNy2DZ0BeQ6yHxh5Rf4HS6u119MNgQqI6NLbOTt1c1ma0
K+OJI/qHVT0SIjZWbjmmq381HQxgNSCXet1jXcAK77whA6881IHszO6RpZyXCGEu
AEcukxHEZ/w4fH4PZBq2LZ0UK3beXXU+AweX4Zp03uXsWOmCJqzv33DZqKvneHUD
eOCilbsKeODEDXIVRQv0cWc4u7lQV6wBT499frjs7p3fiUUBex3hpsoZY1hONrWk
3+jOoXXRW1s/BH+x6gAexvs/L9ElUpeYN6LEgh1KuWguILk2LDV9t2BcN4xhJ2tl
hWw2Je9HjvykdL4iGJlad19c7skahBAjdva9fENbVzc+aJaqv7RF+rTe4bUBQIjT
ARU8mZl1W3AlHEMdWI2QYJT9bYQpldQM9kn7kCmioB943/cC3C+RT2CQktjPTYkk
ZKYeoouN7YK/qJibfMDw7qPECoC2X/y3/qKkQwOGhinAOFCkVsiz1q+LkSDbAVD0
2ty5gnzxHW9GmGUVZ7Y5AKBLrP2cC5bXyGdpNKU9knsH948/WvB2BApkxIwUCWSs
8LzjEm5je8X3f0gLp32Iqegjv1tT/Aorzjf7DMhdSYABlZ8gflgFYPBj0BupwMoE
FCz+5ETdUKtgUll8WEZIy7kahnxxe3CuZOHCcYIksW4OEwIDAQABo3IwcDAOBgNV
HQ8BAf8EBAMCBaAwCQYDVR0TBAIwADATBgNVHSUEDDAKBggrBgEFBQcDAjAdBgNV
HQ4EFgQUyIszmq6W5YpDriCec+50/k2RVkUwHwYDVR0jBBgwFoAUcTovVc7KSLJL
ak0bkwz2gaz8hAYwDQYJKoZIhvcNAQEFBQADggIBAKl2SjAcqnDePOGbR+TeO1Vx
ezBRdGdtw+lZbdgOPcxFjFttFRFv20/DQS5zSGJI184lV8fWBLjcSQ7ucKC4wtaC
Cx1S/y9F9dxJ/pt4u5hsPv5lPn5gkXjVXnTjVFqVoYF5KO5LJAB2T12mDHeomO2u
5sICP8HSwkl6DYjdhe6dTvBVmIIyU0OdV/WTOMeVmNs5dh/B6+zN6NQfrAJz2YAb
vM7O5hf3Q9/HEJiKChSYYv9zqYJ+uDItXLuRonpPN9x7t6H4rnt2mExLUN7pEqjr
nqUcpMzQVQVvrNW2GTu2/fk7bDA+BqTk55r9tiNPp6wEdbu4r1fEOSFKjrKzk2rY
2KvFDhyK8jv/XHaia5rTa3P2pEbtoqhDb2y9+x4LDAdJ8NTzmWSUk2p4Mwo8ZsyP
OPpP6vDMzlBYbrU5z7LhjF96gW5RepBW9jX+So3BwimM70xIbMewp/eGqPINRmvK
9mqnhoSCsfmG6+k5nnbOdxqG3SDApox7bk6kCeEIRQSMGsR2po5JNih2BgEjUdfo
wfgEzLkM1dE1CmDd9N1CP0X6n8LPHvedkPuo9iFysIkyRH86xQV41o5CcZN6w0wn
Mc/ds2vVOj16A4H+43kayJOgx9mhIuMZc4dGznRgSflelObJt58xZ7DXHawmLZ9W
/XD2h6uggpaY40JpROEe
-----END CERTIFICATE-----
