Certificate:
    Data:
        Version: 3 (0x2)
        Serial Number: 1 (0x1)
    Signature Algorithm: sha1WithRSAEncryption
        Issuer: O=30a7b85e4c474715b03ba93a6b9d6a53, CN=ca
        Validity
            Not Before: Dec 30 21:43:54 2014 GMT
            Not After : Dec 29 21:43:54 2024 GMT
        Subject: O=30a7b85e4c474715b03ba93a6b9d6a53, CN=6f8302993d4c4af588fed0bd03506063
        Subject Public Key Info:
            Public Key Algorithm: rsaEncryption
                Public-Key: (4096 bit)
                Modulus:
                    00:c4:51:54:75:43:c5:19:e9:c7:bf:b0:81:3d:f1:
                    f9:8f:cc:d8:c2:c5:ec:dd:d8:cc:a8:69:0e:a9:a9:
                    94:b5:04:97:b2:9c:e3:b8:83:9b:24:8a:c5:78:bd:
                    29:69:05:3f:98:12:be:2e:b7:e0:e8:ad:5c:ce:a7:
                    0d:5d:45:9b:02:1b:de:6a:cb:2e:26:ad:34:8c:03:
                    18:45:5d:b9:07:b1:c1:a7:33:d7:15:2b:07:1e:1f:
                    d8:95:16:7a:df:51:08:8b:6a:f7:a5:0e:b2:c5:66:
                    0b:b9:b3:79:e5:23:17:1c:14:0c:bd:ec:cb:c4:e0:
                    89:2f:ef:fc:92:66:39:ed:dc:ca:19:cd:52:2c:5c:
                    8d:fc:e0:5b:c6:40:ed:22:b1:eb:31:81:eb:36:1d:
                    8f:3f:79:d0:61:6a:5d:81:03:07:24:65:33:d0:a2:
                    7e:71:67:07:26:9a:82:e5:88:ea:8c:a6:f3:5b:d9:
                    a9:16:7a:e9:ad:24:79:eb:be:ae:12:3f:c3:0f:fa:
                    67:8c:37:4a:c3:e8:f6:fb:8f:48:24:25:91:fe:e9:
                    00:e2:9a:0f:7b:46:87:7c:77:bd:f4:b7:e3:bd:f5:
                    c1:dd:22:5f:77:6b:a0:45:c5:2a:26:11:b0:3c:e5:
                    31:fb:4b:ab:93:b3:92:40:77:98:1a:54:ba:a5:37:
                    c6:1c:aa:fc:a6:ec:ee:a6:97:87:f5:f0:b4:31:cf:
                    24:e0:2c:d5:ac:e8:91:ac:e3:8b:5a:99:49:9d:6a:
                    08:38:0e:8c:17:50:d5:12:46:ce:ae:20:a4:dc:ed:
                    67:b5:5d:e7:84:cb:ba:5e:99:ae:69:2c:af:36:0d:
                    30:80:8e:6a:0a:b0:97:eb:a8:4c:6e:76:c7:3a:2e:
                    16:3f:5c:da:81:c0:45:b9:02:44:2d:97:83:45:4f:
                    f1:c9:07:07:cc:af:3b:13:71:23:55:2a:af:27:6b:
                    f7:b3:64:f3:68:2d:cf:68:f3:0f:82:9c:ad:df:bc:
                    cf:cc:1d:80:9d:9b:66:e5:7f:b9:06:be:8e:32:42:
                    ca:6d:df:a9:d1:b5:9e:e6:cc:64:7f:d8:26:c2:7b:
                    ac:59:8d:ae:e1:1a:a1:e6:04:16:04:80:13:92:95:
                    9d:f4:ae:f5:7f:fd:a8:21:83:aa:7a:6e:34:c3:87:
                    6e:b9:ce:1d:e5:7f:8f:a9:ba:17:8d:5c:53:02:60:
                    23:b6:f6:55:9a:e3:a6:1e:23:5c:91:a5:53:94:60:
                    f1:1a:b0:57:f8:e9:5b:a1:75:b6:5f:66:8d:4c:c3:
                    3c:31:1c:34:2f:64:5b:83:10:60:c0:a2:a1:02:a9:
                    a9:06:6c:22:82:7a:d0:bc:e2:2a:fa:9a:34:a1:0f:
                    3b:75:ff
                Exponent: 65537 (0x10001)
        X509v3 extensions:
            X509v3 Key Usage: critical
                Digital Signature, Key Encipherment
            X509v3 Basic Constraints: 
                CA:FALSE
            X509v3 Extended Key Usage: 
                TLS Web Client Authentication
            X509v3 Subject Key Identifier: 
                4B:8E:06:E8:7B:46:4A:A7:8F:99:E2:37:1F:C6:43:F0:1A:7D:9E:7C
            X509v3 Authority Key Identifier: 
                keyid:71:3A:2F:55:CE:CA:48:B2:4B:6A:4D:1B:93:0C:F6:81:AC:FC:84:06

    Signature Algorithm: sha1WithRSAEncryption
         83:34:ef:18:98:e0:85:77:9a:5e:a4:d4:aa:6e:4c:1d:65:62:
         60:86:8d:6a:35:c2:69:5b:d8:c0:3e:57:3d:0b:bd:a2:6b:6c:
         44:37:f5:3d:9f:0f:70:8b:7f:6c:bb:17:a2:ed:29:c0:b4:ee:
         b7:fc:9c:66:dc:dc:73:61:98:d6:d1:c4:e5:da:8a:33:70:a0:
         ad:42:5e:fb:b9:14:20:ba:45:de:98:a0:6f:77:ec:b6:c0:ab:
         1e:5d:5d:09:4e:62:ec:c5:dc:7d:b3:5f:bc:59:c3:8a:b0:25:
         73:5d:77:be:ca:79:96:ba:50:65:f1:db:62:e5:a7:e7:1b:5e:
         90:e9:83:ba:fd:33:67:26:6c:b7:7b:aa:0f:c8:6b:df:6d:cc:
         cb:69:66:9e:46:33:38:3b:47:e7:23:d9:23:60:8c:da:d9:67:
         b3:2f:42:e1:a2:60:09:25:c6:fa:37:81:3d:53:2b:d3:43:cb:
         8e:9e:31:c2:ef:4f:88:e8:c7:87:bb:54:4b:c9:27:38:1c:3b:
         ee:7c:6d:09:34:cb:3b:fb:2e:09:2b:b3:5b:fb:b9:07:30:7e:
         29:59:42:9a:e0:5d:bd:34:b0:60:bf:2c:9a:43:53:a5:40:bf:
         80:09:b4:cc:5d:6f:f4:ff:5a:b9:6e:93:83:b6:73:1f:34:2f:
         8d:98:de:df:cb:21:79:f9:6e:99:f9:7e:a4:d7:b2:76:3c:3f:
         aa:47:9c:8b:dc:2c:ec:6a:54:71:7a:70:8a:f5:60:be:a0:f5:
         f8:f8:28:70:3f:92:8c:b3:b2:6a:47:0f:6c:8b:85:ff:f0:9b:
         b0:06:da:a8:d6:96:17:75:09:2b:58:2e:67:e2:4e:0e:6b:17:
         4a:5b:e5:4b:92:64:d4:20:4a:35:89:c3:31:f5:19:96:6f:73:
         05:97:a6:9f:0b:d3:37:bb:8e:62:95:4f:cd:b4:20:39:33:a3:
         8d:62:34:4a:b4:39:93:0d:9c:fe:b2:39:46:8c:92:f6:ab:a1:
         8b:7b:69:b1:f3:50:4c:18:09:2d:a8:9e:7b:88:dc:94:56:80:
         42:39:43:6b:2e:5e:c8:19:cc:76:5b:e0:d4:5c:0c:7d:6d:e9:
         0b:d6:41:d8:2f:62:f0:54:2f:17:7c:5d:a3:e2:4c:2e:3a:c6:
         30:3e:80:25:e4:51:cb:b0:1d:16:69:fa:11:96:36:1b:5b:91:
         12:5d:7a:9b:47:7b:31:9b:08:ea:12:e5:aa:88:ab:59:76:35:
         4f:bd:5e:db:48:31:41:79:d6:63:e0:5a:2b:62:5c:f7:56:46:
         11:e0:21:a0:a3:76:dc:d6:58:6e:de:17:cf:7a:97:28:0e:66:
         57:9e:8d:76:8f:69:a6:89
-----BEGIN CERTIFICATE-----
MIIFezCCA2OgAwIBAgIBATANBgkqhkiG9w0BAQUFADA4MSkwJwYDVQQKDCAzMGE3
Yjg1ZTRjNDc0NzE1YjAzYmE5M2E2YjlkNmE1MzELMAkGA1UEAwwCY2EwHhcNMTQx
MjMwMjE0MzU0WhcNMjQxMjI5MjE0MzU0WjBWMSkwJwYDVQQKDCAzMGE3Yjg1ZTRj
NDc0NzE1YjAzYmE5M2E2YjlkNmE1MzEpMCcGA1UEAwwgNmY4MzAyOTkzZDRjNGFm
NTg4ZmVkMGJkMDM1MDYwNjMwggIiMA0GCSqGSIb3DQEBAQUAA4ICDwAwggIKAoIC
AQDEUVR1Q8UZ6ce/sIE98fmPzNjCxezd2MyoaQ6pqZS1BJeynOO4g5skisV4vSlp
BT+YEr4ut+DorVzOpw1dRZsCG95qyy4mrTSMAxhFXbkHscGnM9cVKwceH9iVFnrf
UQiLavelDrLFZgu5s3nlIxccFAy97MvE4Ikv7/ySZjnt3MoZzVIsXI384FvGQO0i
sesxges2HY8/edBhal2BAwckZTPQon5xZwcmmoLliOqMpvNb2akWeumtJHnrvq4S
P8MP+meMN0rD6Pb7j0gkJZH+6QDimg97Rod8d730t+O99cHdIl93a6BFxSomEbA8
5TH7S6uTs5JAd5gaVLqlN8Ycqvym7O6ml4f18LQxzyTgLNWs6JGs44tamUmdagg4
DowXUNUSRs6uIKTc7We1XeeEy7pema5pLK82DTCAjmoKsJfrqExudsc6LhY/XNqB
wEW5AkQtl4NFT/HJBwfMrzsTcSNVKq8na/ezZPNoLc9o8w+CnK3fvM/MHYCdm2bl
f7kGvo4yQspt36nRtZ7mzGR/2CbCe6xZja7hGqHmBBYEgBOSlZ30rvV//aghg6p6
bjTDh265zh3lf4+puheNXFMCYCO29lWa46YeI1yRpVOUYPEasFf46VuhdbZfZo1M
wzwxHDQvZFuDEGDAoqECqakGbCKCetC84ir6mjShDzt1/wIDAQABo3IwcDAOBgNV
HQ8BAf8EBAMCBaAwCQYDVR0TBAIwADATBgNVHSUEDDAKBggrBgEFBQcDAjAdBgNV
HQ4EFgQUS44G6HtGSqePmeI3H8ZD8Bp9nnwwHwYDVR0jBBgwFoAUcTovVc7KSLJL
ak0bkwz2gaz8hAYwDQYJKoZIhvcNAQEFBQADggIBAIM07xiY4IV3ml6k1KpuTB1l
YmCGjWo1wmlb2MA+Vz0LvaJrbEQ39T2fD3CLf2y7F6LtKcC07rf8nGbc3HNhmNbR
xOXaijNwoK1CXvu5FCC6Rd6YoG937LbAqx5dXQlOYuzF3H2zX7xZw4qwJXNdd77K
eZa6UGXx22Llp+cbXpDpg7r9M2cmbLd7qg/Ia99tzMtpZp5GMzg7R+cj2SNgjNrZ
Z7MvQuGiYAklxvo3gT1TK9NDy46eMcLvT4jox4e7VEvJJzgcO+58bQk0yzv7Lgkr
s1v7uQcwfilZQprgXb00sGC/LJpDU6VAv4AJtMxdb/T/Wrluk4O2cx80L42Y3t/L
IXn5bpn5fqTXsnY8P6pHnIvcLOxqVHF6cIr1YL6g9fj4KHA/koyzsmpHD2yLhf/w
m7AG2qjWlhd1CStYLmfiTg5rF0pb5UuSZNQgSjWJwzH1GZZvcwWXpp8L0ze7jmKV
T820IDkzo41iNEq0OZMNnP6yOUaMkvaroYt7abHzUEwYCS2onnuI3JRWgEI5Q2su
XsgZzHZb4NRcDH1t6QvWQdgvYvBULxd8XaPiTC46xjA+gCXkUcuwHRZp+hGWNhtb
kRJdeptHezGbCOoS5aqIq1l2NU+9XttIMUF51mPgWitiXPdWRhHgIaCjdtzWWG7e
F896lygOZleejXaPaaaJ
-----END CERTIFICATE-----
