Certificate:
    Data:
        Version: 3 (0x2)
        Serial Number: 1 (0x1)
    Signature Algorithm: sha1WithRSAEncryption
        Issuer: O=30a7b85e4c474715b03ba93a6b9d6a53, CN=ca
        Validity
            Not Before: Dec 30 21:44:10 2014 GMT
            Not After : Dec 29 21:44:10 2024 GMT
        Subject: O=30a7b85e4c474715b03ba93a6b9d6a53, CN=7838172238614285a48d8237fafb69ef
        Subject Public Key Info:
            Public Key Algorithm: rsaEncryption
                Public-Key: (4096 bit)
                Modulus:
                    00:c2:c8:bb:de:9b:9b:6c:b9:4d:90:cd:0b:f9:68:
                    b7:d6:28:58:b7:59:ac:87:e9:6d:f3:38:67:96:0d:
                    d1:12:7e:4a:40:aa:4d:86:91:60:c0:ec:20:15:7f:
                    f2:53:26:f0:1c:b0:29:5b:4c:58:91:d0:87:bf:ea:
                    e2:16:e5:8c:21:1d:df:2a:8c:53:e6:26:96:58:b2:
                    77:a6:30:f7:50:4f:e2:33:73:e2:80:c5:95:2b:fc:
                    cc:39:89:b2:cd:d7:14:e4:77:04:db:a3:19:4b:ad:
                    ba:16:b8:fb:26:71:09:ee:9a:9f:bd:24:78:b4:c4:
                    dd:e5:eb:cf:9e:1b:95:05:9f:21:54:90:e8:bc:eb:
                    0e:54:49:88:2a:fd:7b:4f:66:47:de:1b:67:2e:d3:
                    4d:72:12:93:bd:f1:02:1a:7e:2c:e0:8c:8f:39:eb:
                    a1:6c:39:a5:c3:84:da:ea:ad:ef:31:27:a0:f3:65:
                    45:1a:8a:4c:01:7f:dc:4d:bc:79:05:59:f0:7f:48:
                    4f:e3:cd:57:ae:a0:d2:91:3d:41:8a:74:cf:a3:29:
                    14:35:17:a6:79:41:0b:75:fb:2c:c9:5f:04:35:55:
                    72:01:5e:10:52:ff:86:08:bd:f4:2c:51:c1:26:7c:
                    36:86:66:f5:80:0e:7a:46:b3:e9:dd:41:af:0f:0e:
                    c0:98:0e:85:c7:85:8e:93:64:41:a7:07:ba:41:47:
                    6c:a9:d5:59:ff:42:00:b1:cc:78:38:ad:98:76:c2:
                    44:39:32:b5:48:30:2e:f5:fa:be:c6:5b:ed:a0:be:
                    3d:5d:a1:3b:e3:29:08:ad:53:bf:43:be:11:c0:38:
                    6e:c7:a3:fa:59:f2:84:72:06:f8:ae:e2:7e:28:f1:
                    93:1f:c7:55:ff:78:e2:88:0e:56:73:e2:24:ef:c4:
                    54:66:38:92:17:0a:51:ad:5f:86:11:ec:49:97:36:
                    17:97:f0:bf:ff:72:4e:83:0b:f7:89:f3:f7:64:45:
                    2a:44:3f:00:a8:83:8d:6d:81:0b:b8:1b:0a:03:2e:
                    0f:cc:77:a5:7b:90:7e:15:6f:76:7b:b6:0a:c7:e4:
                    2a:6b:c3:13:f9:92:b6:fa:59:04:9c:f4:96:8f:fb:
                    41:a6:e8:c9:08:f3:20:22:cb:32:b3:5a:39:fd:89:
                    d8:ef:ad:e6:53:65:a4:1b:65:da:d0:87:da:f9:06:
                    6a:3e:f1:34:81:33:88:2c:2f:85:c9:2a:ea:7f:ff:
                    d0:a2:ba:3d:d2:5e:6c:6e:ad:b6:5e:a7:b4:8d:07:
                    c4:12:d9:7b:35:bc:32:a4:be:64:29:5f:db:e5:74:
                    05:60:ed:41:d6:c0:fe:5e:8a:af:a1:33:98:a0:ae:
                    74:54:d5
                Exponent: 65537 (0x10001)
        X509v3 extensions:
            X509v3 Key Usage: critical
                Digital Signature, Key Encipherment
            X509v3 Basic Constraints: 
                CA:FALSE
            X509v3 Extended Key Usage: 
                TLS Web Client Authentication
            X509v3 Subject Key Identifier: 
                E3:16:87:F6:D6:64:35:36:51:5F:F5:E4:34:40:BF:86:22:AE:2B:73
            X509v3 Authority Key Identifier: 
                keyid:71:3A:2F:55:CE:CA:48:B2:4B:6A:4D:1B:93:0C:F6:81:AC:FC:84:06

    Signature Algorithm: sha1WithRSAEncryption
         b6:fd:0a:3f:77:23:db:52:9f:cc:89:6b:ea:ab:1b:52:13:bc:
         5b:63:cb:55:e1:35:f4:5d:e7:a2:b7:90:6f:6b:71:b6:b0:f1:
         72:ae:24:61:30:f9:95:d2:19:43:18:1c:c7:65:52:a8:37:db:
         59:da:70:33:97:10:31:2a:02:e3:cd:53:c0:f4:a4:9b:d2:81:
         b1:f8:ff:ea:53:67:15:bd:c7:6d:5c:1d:c3:6f:87:cf:fa:bd:
         70:de:22:01:86:6a:ff:b7:dc:d3:80:20:0b:09:eb:c6:b9:f1:
         a0:b4:7e:54:91:d4:fb:7e:a8:98:bd:93:1b:a0:af:5f:7a:6d:
         7d:46:5c:72:40:b4:40:24:ab:b3:c6:c8:5d:87:4e:f4:8e:b7:
         e9:c0:3f:0f:89:4f:03:88:46:d8:3e:78:40:9a:7e:c6:dd:3c:
         e7:7f:f9:fa:ad:5e:36:ba:ed:59:35:b2:90:2a:ff:43:4a:c4:
         52:76:12:47:11:a2:0a:64:d7:9b:87:e7:42:e2:30:a0:fe:09:
         52:96:55:cc:87:01:8d:12:86:60:62:1a:12:99:a1:f3:c3:25:
         8c:c4:14:8f:bb:04:f7:d4:26:b9:3b:83:1f:92:96:b8:29:20:
         71:3b:26:77:0f:57:bd:61:9a:e4:da:a4:d1:bb:62:a9:72:1c:
         d1:fa:60:79:2e:bb:2d:4f:4f:d0:77:dc:f3:25:69:e6:b8:12:
         9c:05:71:0a:e4:b7:4e:f8:6f:14:43:bc:b4:0a:9c:b4:56:d6:
         4c:62:7a:c8:e7:e3:d4:cd:9d:bd:16:ab:b5:9b:89:f3:de:66:
         ec:30:f3:14:83:27:05:da:be:31:a8:4b:2d:67:06:86:0e:0d:
         81:7d:5b:86:87:3d:b1:95:a8:20:e7:cf:e6:d2:10:62:c0:41:
         03:a9:d4:45:d6:f7:bb:47:ed:da:e1:ae:b8:6b:31:05:cc:19:
         1a:9f:d9:d5:da:db:36:ab:bd:3b:02:b0:03:16:c9:a9:4d:f1:
         c2:64:1f:6c:d3:b3:10:44:93:d7:c7:24:c5:5e:ae:b2:aa:03:
         7f:6d:de:70:bb:a3:b6:a6:e7:d5:13:7e:52:5a:28:31:71:f8:
         d3:1d:1b:51:64:40:9d:9b:5d:47:eb:7c:4c:1a:fe:93:f0:22:
         d5:77:8c:a3:89:f0:8f:c2:b2:7c:08:a3:2c:a8:7d:47:da:5f:
         25:00:43:9d:f1:9a:23:41:36:ac:af:5f:be:14:3f:f6:2d:c9:
         4b:c6:d0:1a:e9:ea:82:5d:29:b0:e7:01:d0:8d:84:eb:59:04:
         a1:b9:32:5f:1b:97:b1:99:65:38:e6:42:c1:65:c8:2f:e8:70:
         d5:cc:26:c0:85:06:64:cf
-----BEGIN CERTIFICATE-----
MIIFezCCA2OgAwIBAgIBATANBgkqhkiG9w0BAQUFADA4MSkwJwYDVQQKDCAzMGE3
Yjg1ZTRjNDc0NzE1YjAzYmE5M2E2YjlkNmE1MzELMAkGA1UEAwwCY2EwHhcNMTQx
MjMwMjE0NDEwWhcNMjQxMjI5MjE0NDEwWjBWMSkwJwYDVQQKDCAzMGE3Yjg1ZTRj
NDc0NzE1YjAzYmE5M2E2YjlkNmE1MzEpMCcGA1UEAwwgNzgzODE3MjIzODYxNDI4
NWE0OGQ4MjM3ZmFmYjY5ZWYwggIiMA0GCSqGSIb3DQEBAQUAA4ICDwAwggIKAoIC
AQDCyLvem5tsuU2QzQv5aLfWKFi3WayH6W3zOGeWDdESfkpAqk2GkWDA7CAVf/JT
JvAcsClbTFiR0Ie/6uIW5YwhHd8qjFPmJpZYsnemMPdQT+Izc+KAxZUr/Mw5ibLN
1xTkdwTboxlLrboWuPsmcQnump+9JHi0xN3l68+eG5UFnyFUkOi86w5USYgq/XtP
ZkfeG2cu001yEpO98QIafizgjI8566FsOaXDhNrqre8xJ6DzZUUaikwBf9xNvHkF
WfB/SE/jzVeuoNKRPUGKdM+jKRQ1F6Z5QQt1+yzJXwQ1VXIBXhBS/4YIvfQsUcEm
fDaGZvWADnpGs+ndQa8PDsCYDoXHhY6TZEGnB7pBR2yp1Vn/QgCxzHg4rZh2wkQ5
MrVIMC71+r7GW+2gvj1doTvjKQitU79DvhHAOG7Ho/pZ8oRyBviu4n4o8ZMfx1X/
eOKIDlZz4iTvxFRmOJIXClGtX4YR7EmXNheX8L//ck6DC/eJ8/dkRSpEPwCog41t
gQu4GwoDLg/Md6V7kH4Vb3Z7tgrH5CprwxP5krb6WQSc9JaP+0Gm6MkI8yAiyzKz
Wjn9idjvreZTZaQbZdrQh9r5Bmo+8TSBM4gsL4XJKup//9Ciuj3SXmxurbZep7SN
B8QS2Xs1vDKkvmQpX9vldAVg7UHWwP5eiq+hM5igrnRU1QIDAQABo3IwcDAOBgNV
HQ8BAf8EBAMCBaAwCQYDVR0TBAIwADATBgNVHSUEDDAKBggrBgEFBQcDAjAdBgNV
HQ4EFgQU4xaH9tZkNTZRX/XkNEC/hiKuK3MwHwYDVR0jBBgwFoAUcTovVc7KSLJL
ak0bkwz2gaz8hAYwDQYJKoZIhvcNAQEFBQADggIBALb9Cj93I9tSn8yJa+qrG1IT
vFtjy1XhNfRd56K3kG9rcbaw8XKuJGEw+ZXSGUMYHMdlUqg321nacDOXEDEqAuPN
U8D0pJvSgbH4/+pTZxW9x21cHcNvh8/6vXDeIgGGav+33NOAIAsJ68a58aC0flSR
1Pt+qJi9kxugr196bX1GXHJAtEAkq7PGyF2HTvSOt+nAPw+JTwOIRtg+eECafsbd
POd/+fqtXja67Vk1spAq/0NKxFJ2EkcRogpk15uH50LiMKD+CVKWVcyHAY0ShmBi
GhKZofPDJYzEFI+7BPfUJrk7gx+SlrgpIHE7JncPV71hmuTapNG7YqlyHNH6YHku
uy1PT9B33PMlaea4EpwFcQrkt074bxRDvLQKnLRW1kxiesjn49TNnb0Wq7WbifPe
Zuww8xSDJwXavjGoSy1nBoYODYF9W4aHPbGVqCDnz+bSEGLAQQOp1EXW97tH7drh
rrhrMQXMGRqf2dXa2zarvTsCsAMWyalN8cJkH2zTsxBEk9fHJMVerrKqA39t3nC7
o7am59UTflJaKDFx+NMdG1FkQJ2bXUfrfEwa/pPwItV3jKOJ8I/CsnwIoyyofUfa
XyUAQ53xmiNBNqyvX74UP/YtyUvG0Brp6oJdKbDnAdCNhOtZBKG5Ml8bl7GZZTjm
QsFlyC/ocNXMJsCFBmTP
-----END CERTIFICATE-----
