Certificate:
    Data:
        Version: 3 (0x2)
        Serial Number: 1 (0x1)
    Signature Algorithm: sha1WithRSAEncryption
        Issuer: O=30a7b85e4c474715b03ba93a6b9d6a53, CN=ca
        Validity
            Not Before: Dec 30 21:43:48 2014 GMT
            Not After : Dec 29 21:43:48 2024 GMT
        Subject: O=30a7b85e4c474715b03ba93a6b9d6a53, CN=ca
        Subject Public Key Info:
            Public Key Algorithm: rsaEncryption
                Public-Key: (4096 bit)
                Modulus:
                    00:ca:37:3c:e0:09:17:9e:5c:ea:e4:98:d9:0a:4b:
                    e5:f9:5b:96:aa:e7:0b:b2:be:ef:fe:26:5c:69:58:
                    dc:8b:12:f2:94:b1:a8:a4:be:b6:91:47:6d:e7:22:
                    a7:f5:90:cd:df:17:3b:3a:ca:a3:10:b4:44:cc:6c:
                    0a:fc:6f:51:e3:d0:f2:14:2d:2a:90:81:be:b3:97:
                    e8:fb:50:4b:5a:08:cd:52:e9:25:a1:cf:d0:aa:96:
                    e7:68:d5:b8:e5:ae:1a:86:d9:94:5c:73:c0:57:5a:
                    fe:d3:62:5f:66:b3:15:ea:25:f7:e1:bd:a9:a6:73:
                    50:5b:f0:f1:06:d4:0b:b7:bb:82:4f:fa:d6:2d:f5:
                    66:e7:2a:52:9d:9e:00:2c:f7:7d:9e:bc:5f:db:c8:
                    10:6c:2c:16:de:25:92:78:38:9d:09:c1:93:c6:38:
                    61:86:f4:a2:b3:3c:15:7a:98:1b:18:03:63:ab:85:
                    39:cc:81:d0:16:c9:47:51:fb:80:30:46:00:76:af:
                    d5:cf:2e:f2:39:56:1c:d6:b2:91:01:a1:6f:0a:d5:
                    58:28:d0:8d:ab:67:c1:54:07:d5:df:e4:e3:b8:30:
                    6b:36:7e:c3:ac:6a:4e:8a:6c:e2:86:93:02:80:e4:
                    0c:36:4f:ce:7f:8d:e3:7d:3a:fa:bb:f9:f5:45:cb:
                    7e:97:db:b0:a7:53:66:95:b1:bc:46:6e:0a:ac:22:
                    ed:e7:72:c0:e8:84:fe:d9:39:60:b0:32:93:86:5b:
                    e8:1c:1e:1a:5b:62:95:4e:77:01:00:87:79:90:02:
                    18:8d:7e:68:f8:d0:10:eb:db:39:9b:6b:5f:57:33:
                    30:d6:30:f1:44:84:3a:88:29:16:e9:d3:7f:30:8e:
                    83:42:1a:8f:78:85:84:2a:16:ca:5b:19:eb:4d:32:
                    e3:ba:07:88:40:83:cd:be:52:62:00:50:00:a1:57:
                    dc:cc:35:92:42:88:60:1d:4f:32:be:0d:57:3e:66:
                    14:e9:ca:4e:6f:59:c2:6f:09:19:f0:3b:02:12:ce:
                    3f:c4:94:9d:6c:48:8c:bc:89:c1:fa:c0:d7:17:ef:
                    45:4a:b8:0f:e0:88:de:33:27:7f:83:8f:e9:36:d6:
                    07:25:3f:26:e6:5a:79:74:2b:e9:c8:9f:6e:2f:fd:
                    89:d8:9c:be:00:d5:71:95:a6:b2:77:c4:18:c7:69:
                    6b:e9:d6:ab:ad:98:95:f2:af:6c:f2:e3:57:84:37:
                    11:57:ad:20:a7:9d:46:28:3e:69:c5:95:ce:1b:04:
                    43:db:6b:8e:c9:ae:c9:d0:ae:74:df:f2:73:41:72:
                    ec:44:ec:53:e1:15:f8:90:f7:8b:21:84:cf:51:20:
                    54:68:bb
                Exponent: 65537 (0x10001)
        X509v3 extensions:
            X509v3 Key Usage: critical
                Certificate Sign, CRL Sign
            X509v3 Basic Constraints: critical
                CA:TRUE
            X509v3 Subject Key Identifier: 
                71:3A:2F:55:CE:CA:48:B2:4B:6A:4D:1B:93:0C:F6:81:AC:FC:84:06
            X509v3 Authority Key Identifier: 
                keyid:71:3A:2F:55:CE:CA:48:B2:4B:6A:4D:1B:93:0C:F6:81:AC:FC:84:06

    Signature Algorithm: sha1WithRSAEncryption
         6c:51:fc:89:a5:b1:9f:1a:0c:c5:f8:58:a9:43:12:64:66:70:
         6a:a2:bb:61:0f:19:ad:5f:0c:da:b2:7a:b3:92:90:4a:18:24:
         21:c2:33:d9:4c:e4:4c:c1:35:e6:24:17:97:63:e5:19:ab:55:
         30:11:11:e7:1f:ef:11:a0:4c:ab:63:cc:7b:fa:94:84:4f:8c:
         a2:17:09:c5:dc:06:34:04:9e:f6:d8:32:d9:7e:e4:f4:2a:69:
         6a:e9:d9:89:1e:6b:c0:3c:51:3c:c9:e8:c2:74:4d:6e:f5:55:
         80:66:ed:d1:46:11:7d:61:54:0d:c5:9f:9e:32:ef:2d:62:6d:
         ee:8a:47:f1:6a:7a:c7:4f:1d:8b:3c:cd:35:0e:6d:ee:a9:af:
         0a:a3:98:1c:4e:c4:bf:ce:1d:b2:99:05:e0:e9:73:aa:3d:e0:
         af:02:57:05:17:35:9b:31:bf:00:ea:d3:4d:91:f5:e3:cb:da:
         52:39:58:84:15:c3:d5:b8:c2:03:18:ed:65:c0:01:a0:9f:54:
         7f:22:7b:80:17:28:98:37:9d:b4:64:b1:fa:02:47:8c:12:d9:
         34:a6:c6:8d:a1:66:ad:cf:ce:54:84:55:21:19:f8:71:0e:12:
         aa:f3:7c:92:80:bc:87:86:17:8d:09:b8:1d:2b:24:8f:82:4c:
         c7:35:46:94:bd:fe:0c:a7:f0:6c:17:26:b0:eb:a6:67:fc:5c:
         52:4e:46:e5:7a:1a:12:4e:0c:30:b9:da:5b:76:3a:9d:3f:45:
         6a:e2:d2:37:5f:ff:d0:e0:28:e5:c1:b1:fe:de:c2:81:ab:8d:
         2f:e1:b5:7d:7e:fc:51:b2:1d:07:e9:98:d6:cf:dc:05:a3:11:
         96:b5:9e:ea:90:5a:8f:13:2e:09:a6:56:55:53:21:95:fb:0b:
         39:17:c6:8c:5c:66:32:94:61:d8:f5:14:f1:73:be:86:c7:fa:
         7a:97:9a:a6:b9:9d:66:bc:d4:42:a6:0f:f9:32:76:e9:7a:e2:
         a6:b9:b0:ab:3f:72:a5:2b:99:06:b9:3f:40:93:d1:53:32:e4:
         ec:c5:fd:ed:14:8f:95:88:c0:d6:a5:a6:5d:cc:08:10:b9:c5:
         29:c4:eb:51:8a:ae:6f:98:1d:f5:01:0b:32:97:3c:f2:ec:a1:
         c9:9a:f5:0d:5f:52:39:ad:26:cd:10:e0:d3:1b:98:16:e7:72:
         f9:97:41:f6:ba:52:c2:2e:57:af:dd:bc:d1:aa:ae:4f:16:d3:
         7c:f2:86:58:14:e5:36:05:5d:90:bb:e8:e4:99:85:06:e6:18:
         44:6b:4e:b6:d0:76:75:69:b8:df:10:78:05:c6:f7:c0:e9:1a:
         94:25:d1:bd:4e:8c:7d:d6
-----BEGIN CERTIFICATE-----
MIIFTjCCAzagAwIBAgIBATANBgkqhkiG9w0BAQUFADA4MSkwJwYDVQQKDCAzMGE3
Yjg1ZTRjNDc0NzE1YjAzYmE5M2E2YjlkNmE1MzELMAkGA1UEAwwCY2EwHhcNMTQx
MjMwMjE0MzQ4WhcNMjQxMjI5MjE0MzQ4WjA4MSkwJwYDVQQKDCAzMGE3Yjg1ZTRj
NDc0NzE1YjAzYmE5M2E2YjlkNmE1MzELMAkGA1UEAwwCY2EwggIiMA0GCSqGSIb3
DQEBAQUAA4ICDwAwggIKAoICAQDKNzzgCReeXOrkmNkKS+X5W5aq5wuyvu/+Jlxp
WNyLEvKUsaikvraRR23nIqf1kM3fFzs6yqMQtETMbAr8b1Hj0PIULSqQgb6zl+j7
UEtaCM1S6SWhz9Cqludo1bjlrhqG2ZRcc8BXWv7TYl9msxXqJffhvammc1Bb8PEG
1Au3u4JP+tYt9WbnKlKdngAs932evF/byBBsLBbeJZJ4OJ0JwZPGOGGG9KKzPBV6
mBsYA2OrhTnMgdAWyUdR+4AwRgB2r9XPLvI5VhzWspEBoW8K1Vgo0I2rZ8FUB9Xf
5OO4MGs2fsOsak6KbOKGkwKA5Aw2T85/jeN9Ovq7+fVFy36X27CnU2aVsbxGbgqs
Iu3ncsDohP7ZOWCwMpOGW+gcHhpbYpVOdwEAh3mQAhiNfmj40BDr2zmba19XMzDW
MPFEhDqIKRbp038wjoNCGo94hYQqFspbGetNMuO6B4hAg82+UmIAUAChV9zMNZJC
iGAdTzK+DVc+ZhTpyk5vWcJvCRnwOwISzj/ElJ1sSIy8icH6wNcX70VKuA/giN4z
J3+Dj+k21gclPybmWnl0K+nIn24v/YnYnL4A1XGVprJ3xBjHaWvp1qutmJXyr2zy
41eENxFXrSCnnUYoPmnFlc4bBEPba47JrsnQrnTf8nNBcuxE7FPhFfiQ94shhM9R
IFRouwIDAQABo2MwYTAOBgNVHQ8BAf8EBAMCAQYwDwYDVR0TAQH/BAUwAwEB/zAd
BgNVHQ4EFgQUcTovVc7KSLJLak0bkwz2gaz8hAYwHwYDVR0jBBgwFoAUcTovVc7K
SLJLak0bkwz2gaz8hAYwDQYJKoZIhvcNAQEFBQADggIBAGxR/ImlsZ8aDMX4WKlD
EmRmcGqiu2EPGa1fDNqyerOSkEoYJCHCM9lM5EzBNeYkF5dj5RmrVTAREecf7xGg
TKtjzHv6lIRPjKIXCcXcBjQEnvbYMtl+5PQqaWrp2Ykea8A8UTzJ6MJ0TW71VYBm
7dFGEX1hVA3Fn54y7y1ibe6KR/FqesdPHYs8zTUObe6prwqjmBxOxL/OHbKZBeDp
c6o94K8CVwUXNZsxvwDq002R9ePL2lI5WIQVw9W4wgMY7WXAAaCfVH8ie4AXKJg3
nbRksfoCR4wS2TSmxo2hZq3PzlSEVSEZ+HEOEqrzfJKAvIeGF40JuB0rJI+CTMc1
RpS9/gyn8GwXJrDrpmf8XFJORuV6GhJODDC52lt2Op0/RWri0jdf/9DgKOXBsf7e
woGrjS/htX1+/FGyHQfpmNbP3AWjEZa1nuqQWo8TLgmmVlVTIZX7CzkXxoxcZjKU
Ydj1FPFzvobH+nqXmqa5nWa81EKmD/kydul64qa5sKs/cqUrmQa5P0CT0VMy5OzF
/e0Uj5WIwNalpl3MCBC5xSnE61GKrm+YHfUBCzKXPPLsocma9Q1fUjmtJs0Q4NMb
mBbncvmXQfa6UsIuV6/dvNGqrk8W03zyhlgU5TYFXZC76OSZhQbmGERrTrbQdnVp
uN8QeAXG98DpGpQl0b1OjH3W
-----END CERTIFICATE-----
